{
   <insert_a_suppression_name_here>
   Memcheck:Cond
   fun:_ZNSt3__112basic_stringIcNS_11char_traitsIcEENS_9allocatorIcEEE21__grow_by_and_replaceEmmmmmmPKc
   fun:_ZNSt3__112basic_stringIcNS_11char_traitsIcEENS_9allocatorIcEEE6appendEPKcm
   fun:_ZN5boost3log11v2_mt_posix3aux22basic_ostringstreambufIcNSt3__111char_traitsIcEENS4_9allocatorIcEEE6appendEPKcm
   fun:_ZN5boost3log11v2_mt_posix24basic_formatting_ostreamIcNSt3__111char_traitsIcEENS3_9allocatorIcEEE15formatted_writeEPKcl
   fun:_ZN5boost3log11v2_mt_posixlsIcNSt3__111char_traitsIcEENS3_9allocatorIcEEEENS1_3aux30enable_if_streamable_char_typeIT_RNS1_24basic_formatting_ostreamIcS5_S7_EEE4typeESD_RKNS3_12basic_stringISA_T0_T1_EE
   fun:_ZN5boost3log11v2_mt_posixlsINS1_24basic_formatting_ostreamIcNSt3__111char_traitsIcEENS4_9allocatorIcEEEENS4_12basic_stringIcS6_S8_EENS1_11expressions3tag8smessageEEENS_11enable_if_cIXsr3log3aux10is_ostreamIT_EE5valueERSG_E4typeESH_NS1_12to_log_manipIT0_T1_EE
   fun:_ZNK5boost3log11v2_mt_posix10to_log_funINS1_11expressions3tag8smessageEEclINS1_24basic_formatting_ostreamIcNSt3__111char_traitsIcEENS9_9allocatorIcEEEENS9_12basic_stringIcSB_SD_EEEEvRT_RKT0_
   fun:_ZNK5boost3log11v2_mt_posix9binder1stINS1_10to_log_funINS1_11expressions3tag8smessageEEERNS1_24basic_formatting_ostreamIcNSt3__111char_traitsIcEENS9_9allocatorIcEEEEEclINS9_12basic_stringIcSB_SD_EEEEvRKT_
   fun:_ZNK5boost3log11v2_mt_posix3aux12singular_refINSt3__112basic_stringIcNS4_11char_traitsIcEENS4_9allocatorIcEEEENS1_11expressions3tag8smessageEE13apply_visitorINS1_9binder1stINS1_10to_log_funISD_EERNS1_24basic_formatting_ostreamIcS7_S9_EEEEEENT_11result_typeESN_
   fun:_ZN5boost3log11v2_mt_posixlsIcNSt3__111char_traitsIcEENS3_9allocatorIcEENS3_12basic_stringIcS5_S7_EENS1_11expressions3tag8smessageEEERNS1_24basic_formatting_ostreamIT_T0_T1_EESI_RKNS1_9value_refIT2_T3_EE
   fun:_ZNK5boost5proto6detail18default_shift_leftINS_7phoenix12meta_grammarEE4implIRNS3_5actorINS0_7exprns_10basic_exprINS0_6tagns_3tag10shift_leftENS0_7argsns_5list2INS7_INS9_ISC_NSE_INS7_INS_3log11v2_mt_posix11expressions3aux25attribute_output_terminalINS7_INS9_ISC_NSE_INS7_INSJ_INS7_INS9_ISC_NSE_INS7_INSJ_INS7_INS9_ISC_NSE_INS7_INS9_ISC_NSE_INS7_INS9_ISC_NSE_INS7_INSJ_INS7_INS9_INSB_8terminalENSD_4termINS3_8argumentILi2EEEEELl0EEEEENS_10posix_time5ptimeENSG_16fallback_to_noneENSG_3aux14light_functionIFvRNSG_24basic_formatting_ostreamIcNSt3__111char_traitsIcEENSX_9allocatorIcEEEERKSS_EEEEEEENS7_INS9_ISK_NSL_IA7_cEELl0EEEEEEELl2EEEEENS7_INS9_ISK_NSL_IiEELl0EEEEEEELl2EEEEENS7_INS9_ISK_NSL_IA3_cEELl0EEEEEEELl2EEEEEN2ml4core7CLogger6ELevelEST_NSG_10to_log_funIvEEEEEENS7_INS9_ISK_NSL_IcEELl0EEEEEEELl2EEEEENSX_12basic_stringIcSZ_S11_EEST_S1Z_EEEES24_EELl2EEEEEiST_S1Z_EEEES24_EELl2EEEEENSH_15attribute_actorIS29_ST_NSH_3tag8smessageES7_EEEELl2EEEEERNS3_7vector3IPKS2Q_RKNSG_11record_viewERNSI_10stream_refIS12_EEEERKNS3_15default_actionsEEclES2R_S32_S35_
   fun:_ZNK5boost7phoenix9evaluator4implIRNS0_5actorINS_5proto7exprns_10basic_exprINS4_6tagns_3tag10shift_leftENS4_7argsns_5list2INS3_INS6_IS9_NSB_INS3_INS_3log11v2_mt_posix11expressions3aux25attribute_output_terminalINS3_INS6_IS9_NSB_INS3_INSG_INS3_INS6_IS9_NSB_INS3_INSG_INS3_INS6_IS9_NSB_INS3_INS6_IS9_NSB_INS3_INS6_IS9_NSB_INS3_INSG_INS3_INS6_INS8_8terminalENSA_4termINS0_8argumentILi2EEEEELl0EEEEENS_10posix_time5ptimeENSD_16fallback_to_noneENSD_3aux14light_functionIFvRNSD_24basic_formatting_ostreamIcNSt3__111char_traitsIcEENSU_9allocatorIcEEEERKSP_EEEEEEENS3_INS6_ISH_NSI_IA7_cEELl0EEEEEEELl2EEEEENS3_INS6_ISH_NSI_IiEELl0EEEEEEELl2EEEEENS3_INS6_ISH_NSI_IA3_cEELl0EEEEEEELl2EEEEEN2ml4core7CLogger6ELevelESQ_NSD_10to_log_funIvEEEEEENS3_INS6_ISH_NSI_IcEELl0EEEEEEELl2EEEEENSU_12basic_stringIcSW_SY_EESQ_S1W_EEEES21_EELl2EEEEEiSQ_S1W_EEEES21_EELl2EEEEENSE_15attribute_actorIS26_SQ_NSE_3tag8smessageES3_EEEELl2EEEEERKNS0_7vector2IRNS0_7vector3IPKS2N_RKNSD_11record_viewERNSF_10stream_refISZ_EEEERKNS0_15default_actionsEEENS4_6envns_9empty_envEEclES2O_S36_RKS38_
}
{
   <insert_a_suppression_name_here>
   Memcheck:Value8
   fun:_platform_memmove$VARIANT$Haswell
   fun:__sfvwrite
   fun:__vfprintf
   fun:__v2printf
   fun:_vsnprintf
   fun:vsnprintf_l
   fun:snprintf_l
   fun:_ZNKSt3__17num_putIcNS_19ostreambuf_iteratorIcNS_11char_traitsIcEEEEE6do_putES4_RNS_8ios_baseEcd
   fun:_ZNSt3__113basic_ostreamIcNS_11char_traitsIcEEElsEd
   fun:_ZNSt3__1lsIdcNS_11char_traitsIcEEEERNS_13basic_ostreamIT0_T1_EES7_RKNS_7complexIT_EE
   fun:_ZN2ml4core14printer_detail12CLeafPrinterIN5boost17integral_constantIbLb0EEEE6print_INSt3__17complexIdEEEENS8_12basic_stringIcNS8_11char_traitsIcEENS8_9allocatorIcEEEERKT_S5_
   fun:_ZN2ml4core14printer_detail12CLeafPrinterIN5boost17integral_constantIbLb0EEEE5printINSt3__17complexIdEEEENS8_12basic_stringIcNS8_11char_traitsIcEENS8_9allocatorIcEEEERKT_
}
{
   <insert_a_suppression_name_here>
   Memcheck:Cond
   fun:_ZNSt3__115basic_stringbufIcNS_11char_traitsIcEENS_9allocatorIcEEE8overflowEi
   fun:_ZNSt3__115basic_streambufIcNS_11char_traitsIcEEE6xsputnEPKcl
   fun:_ZNSt3__115basic_streambufIcNS_11char_traitsIcEEE5sputnEPKcl
   fun:_ZNSt3__116__pad_and_outputIcNS_11char_traitsIcEEEENS_19ostreambuf_iteratorIT_T0_EES6_PKS4_S8_S8_RNS_8ios_baseES4_
   fun:_ZNSt3__124__put_character_sequenceIcNS_11char_traitsIcEEEERNS_13basic_ostreamIT_T0_EES7_PKS4_m
   fun:_ZNSt3__1lsIcNS_11char_traitsIcEENS_9allocatorIcEEEERNS_13basic_ostreamIT_T0_EES9_RKNS_12basic_stringIS6_S7_T1_EE
   fun:_ZN2ml4core17CContainerPrinter5printINSt3__111__wrap_iterIPKNS3_7complexIdEEEEEENS3_12basic_stringIcNS3_11char_traitsIcEENS3_9allocatorIcEEEET_SG_
   fun:_ZN2ml4core17CContainerPrinter5printINSt3__16vectorINS3_7complexIdEENS3_9allocatorIS6_EEEEEENS3_12basic_stringIcNS3_11char_traitsIcEENS7_IcEEEERKT_
   fun:_ZN2ml5maths7CSignal3fftERNSt3__16vectorINS2_7complexIdEENS2_9allocatorIS5_EEEE
   fun:_ZN2ml5maths7CSignal16autocorrelationsERKNSt3__16vectorINS0_16CBasicStatistics21SSampleCentralMomentsINS_4core13CFloatStorageELj1EEENS2_9allocatorIS8_EEEERNS3_IdNS9_IdEEEE
   fun:_ZN2ml5maths12_GLOBAL__N_132mostSignificantPeriodicComponentENSt3__16vectorINS0_16CBasicStatistics21SSampleCentralMomentsINS_4core13CFloatStorageELj1EEENS2_9allocatorIS8_EEEE
   fun:_ZN2ml5maths14testForPeriodsERKNS0_33CPeriodicityHypothesisTestsConfigEllRKNSt3__16vectorINS0_16CBasicStatistics21SSampleCentralMomentsINS_4core13CFloatStorageELj1EEENS4_9allocatorISA_EEEE
}
{
   <insert_a_suppression_name_here>
   Memcheck:Cond
   fun:__sfvwrite
   fun:__vfprintf
   fun:__v2printf
   fun:_vsnprintf
   fun:vsnprintf_l
   fun:snprintf_l
   fun:_ZNKSt3__17num_putIcNS_19ostreambuf_iteratorIcNS_11char_traitsIcEEEEE6do_putES4_RNS_8ios_baseEcd
   fun:_ZNSt3__113basic_ostreamIcNS_11char_traitsIcEEElsEd
   fun:_ZNSt3__1lsIdcNS_11char_traitsIcEEEERNS_13basic_ostreamIT0_T1_EES7_RKNS_7complexIT_EE
   fun:_ZN2ml4core14printer_detail12CLeafPrinterIN5boost17integral_constantIbLb0EEEE6print_INSt3__17complexIdEEEENS8_12basic_stringIcNS8_11char_traitsIcEENS8_9allocatorIcEEEERKT_S5_
   fun:_ZN2ml4core14printer_detail12CLeafPrinterIN5boost17integral_constantIbLb0EEEE5printINSt3__17complexIdEEEENS8_12basic_stringIcNS8_11char_traitsIcEENS8_9allocatorIcEEEERKT_
   fun:_ZN2ml4core14printer_detail12CNodePrinterIN5boost17integral_constantIbLb0EEENS0_17CContainerPrinterEE5printINSt3__17complexIdEEEENS9_12basic_stringIcNS9_11char_traitsIcEENS9_9allocatorIcEEEERKT_
}
{
   <insert_a_suppression_name_here>
   Memcheck:Cond
   fun:_ZN5boost3log11v2_mt_posix24basic_formatting_ostreamIcNSt3__111char_traitsIcEENS3_9allocatorIcEEE15formatted_writeEPKcl
   fun:_ZN5boost3log11v2_mt_posixlsIcNSt3__111char_traitsIcEENS3_9allocatorIcEEEENS1_3aux30enable_if_streamable_char_typeIT_RNS1_24basic_formatting_ostreamIcS5_S7_EEE4typeESD_RKNS3_12basic_stringISA_T0_T1_EE
   fun:_ZN5boost3log11v2_mt_posixlsINS1_20basic_record_ostreamIcEENSt3__112basic_stringIcNS5_11char_traitsIcEENS5_9allocatorIcEEEEEENS1_3aux38enable_record_ostream_generic_operatorIT_T0_Lb0ERSE_E4typeESG_RKSF_
   fun:_ZN2ml5maths7CSignal3fftERNSt3__16vectorINS2_7complexIdEENS2_9allocatorIS5_EEEE
   fun:_ZN2ml5maths7CSignal16autocorrelationsERKNSt3__16vectorINS0_16CBasicStatistics21SSampleCentralMomentsINS_4core13CFloatStorageELj1EEENS2_9allocatorIS8_EEEERNS3_IdNS9_IdEEEE
   fun:_ZN2ml5maths12_GLOBAL__N_132mostSignificantPeriodicComponentENSt3__16vectorINS0_16CBasicStatistics21SSampleCentralMomentsINS_4core13CFloatStorageELj1EEENS2_9allocatorIS8_EEEE
   fun:_ZN2ml5maths14testForPeriodsERKNS0_33CPeriodicityHypothesisTestsConfigEllRKNSt3__16vectorINS0_16CBasicStatistics21SSampleCentralMomentsINS_4core13CFloatStorageELj1EEENS4_9allocatorISA_EEEE
   fun:_ZN2ml5maths30CTimeSeriesDecompositionDetail16CPeriodicityTest4testERKNS1_9SAddValueE
   fun:_ZN2ml5maths30CTimeSeriesDecompositionDetail16CPeriodicityTest6handleERKNS1_9SAddValueE
   fun:_ZN2ml5maths24CTimeSeriesDecomposition8addPointEldRKNSt3__15arrayIdLm4EEERKNS2_8functionIFvNS2_6vectorINS0_16CBasicStatistics21SSampleCentralMomentsINS_4core13CFloatStorageELj1EEENS2_9allocatorISD_EEEEEEE
   fun:_ZN28CTimeSeriesDecompositionTest39testMixedSmoothAndSpikeyDataProblemCase11test_methodEv
   fun:_ZN28CTimeSeriesDecompositionTestL47testMixedSmoothAndSpikeyDataProblemCase_invokerEv
}
{
   <insert_a_suppression_name_here>
   Memcheck:Cond
   fun:_ZNSt3__113basic_ostreamIcNS_11char_traitsIcEEE5writeEPKcl
   fun:_ZN5boost3log11v2_mt_posix5sinks26basic_text_ostream_backendIcE7consumeERKNS1_11record_viewERKNSt3__112basic_stringIcNS8_11char_traitsIcEENS8_9allocatorIcEEEE
   fun:_ZN5boost3log11v2_mt_posix5sinks30basic_formatting_sink_frontendIcE11feed_recordINS1_3aux10fake_mutexENS2_26basic_text_ostream_backendIcEEEEvRKNS1_11record_viewERT_RT0_
   fun:_ZN5boost3log11v2_mt_posix5sinks30basic_formatting_sink_frontendIcE15try_feed_recordINS_15recursive_mutexENS2_26basic_text_ostream_backendIcEEEEbRKNS1_11record_viewERT_RT0_
   fun:_ZN5boost3log11v2_mt_posix5sinks16synchronous_sinkINS2_26basic_text_ostream_backendIcEEE11try_consumeERKNS1_11record_viewE
   fun:_ZN5boost3log11v2_mt_posix4core16push_record_moveERNS1_6recordE
   fun:_ZN5boost3log11v2_mt_posix7sources12basic_loggerIcNS2_18severity_logger_mtIN2ml4core7CLogger6ELevelEEENS2_18multi_thread_modelINS1_3aux14light_rw_mutexEEEE20push_record_unlockedEONS1_6recordE
   fun:_ZN5boost3log11v2_mt_posix7sources22basic_composite_loggerIcNS2_18severity_logger_mtIN2ml4core7CLogger6ELevelEEENS2_18multi_thread_modelINS1_3aux14light_rw_mutexEEENS2_8featuresIJNS2_8severityIS8_EEEEEE11push_recordEONS1_6recordE
   fun:_ZN5boost3log11v2_mt_posix3aux11record_pumpINS1_7sources18severity_logger_mtIN2ml4core7CLogger6ELevelEEEED2Ev
   fun:_ZN5boost3log11v2_mt_posix3aux11record_pumpINS1_7sources18severity_logger_mtIN2ml4core7CLogger6ELevelEEEED1Ev
   fun:_ZN2ml5maths7CSignal3fftERNSt3__16vectorINS2_7complexIdEENS2_9allocatorIS5_EEEE
   fun:_ZN2ml5maths7CSignal16autocorrelationsERKNSt3__16vectorINS0_16CBasicStatistics21SSampleCentralMomentsINS_4core13CFloatStorageELj1EEENS2_9allocatorIS8_EEEERNS3_IdNS9_IdEEEE
}
{
   <insert_a_suppression_name_here>
   Memcheck:Cond
   fun:_ZNKSt3__115basic_stringbufIcNS_11char_traitsIcEENS_9allocatorIcEEE3strEv
   fun:_ZNKSt3__119basic_ostringstreamIcNS_11char_traitsIcEENS_9allocatorIcEEE3strEv
   fun:_ZNSt3__1lsIdcNS_11char_traitsIcEEEERNS_13basic_ostreamIT0_T1_EES7_RKNS_7complexIT_EE
   fun:_ZN2ml4core14printer_detail12CLeafPrinterIN5boost17integral_constantIbLb0EEEE6print_INSt3__17complexIdEEEENS8_12basic_stringIcNS8_11char_traitsIcEENS8_9allocatorIcEEEERKT_S5_
   fun:_ZN2ml4core14printer_detail12CLeafPrinterIN5boost17integral_constantIbLb0EEEE5printINSt3__17complexIdEEEENS8_12basic_stringIcNS8_11char_traitsIcEENS8_9allocatorIcEEEERKT_
   fun:_ZN2ml4core14printer_detail12CNodePrinterIN5boost17integral_constantIbLb0EEENS0_17CContainerPrinterEE5printINSt3__17complexIdEEEENS9_12basic_stringIcNS9_11char_traitsIcEENS9_9allocatorIcEEEERKT_
   fun:_ZN2ml4core17CContainerPrinter12printElementINSt3__17complexIdEEEENS3_12basic_stringIcNS3_11char_traitsIcEENS3_9allocatorIcEEEERKT_
   fun:_ZN2ml4core17CContainerPrinter5printINSt3__111__wrap_iterIPKNS3_7complexIdEEEEEENS3_12basic_stringIcNS3_11char_traitsIcEENS3_9allocatorIcEEEET_SG_
   fun:_ZN2ml4core17CContainerPrinter5printINSt3__16vectorINS3_7complexIdEENS3_9allocatorIS6_EEEEEENS3_12basic_stringIcNS3_11char_traitsIcEENS7_IcEEEERKT_
   fun:_ZN2ml5maths7CSignal3fftERNSt3__16vectorINS2_7complexIdEENS2_9allocatorIS5_EEEE
   fun:_ZN2ml5maths7CSignal16autocorrelationsERKNSt3__16vectorINS0_16CBasicStatistics21SSampleCentralMomentsINS_4core13CFloatStorageELj1EEENS2_9allocatorIS8_EEEERNS3_IdNS9_IdEEEE
   fun:_ZN2ml5maths12_GLOBAL__N_132mostSignificantPeriodicComponentENSt3__16vectorINS0_16CBasicStatistics21SSampleCentralMomentsINS_4core13CFloatStorageELj1EEENS2_9allocatorIS8_EEEE
}
{
   <insert_a_suppression_name_here>
   Memcheck:Value8
   fun:_ZNSt3__115basic_streambufIcNS_11char_traitsIcEEE5sputcEc
   fun:_ZNSt3__115basic_stringbufIcNS_11char_traitsIcEENS_9allocatorIcEEE8overflowEi
   fun:_ZNSt3__115basic_streambufIcNS_11char_traitsIcEEE6xsputnEPKcl
   fun:_ZNSt3__115basic_streambufIcNS_11char_traitsIcEEE5sputnEPKcl
   fun:_ZNSt3__116__pad_and_outputIcNS_11char_traitsIcEEEENS_19ostreambuf_iteratorIT_T0_EES6_PKS4_S8_S8_RNS_8ios_baseES4_
   fun:_ZNSt3__124__put_character_sequenceIcNS_11char_traitsIcEEEERNS_13basic_ostreamIT_T0_EES7_PKS4_m
   fun:_ZNSt3__1lsIcNS_11char_traitsIcEENS_9allocatorIcEEEERNS_13basic_ostreamIT_T0_EES9_RKNS_12basic_stringIS6_S7_T1_EE
   fun:_ZN2ml4core17CContainerPrinter5printINSt3__111__wrap_iterIPKNS3_7complexIdEEEEEENS3_12basic_stringIcNS3_11char_traitsIcEENS3_9allocatorIcEEEET_SG_
   fun:_ZN2ml4core17CContainerPrinter5printINSt3__16vectorINS3_7complexIdEENS3_9allocatorIS6_EEEEEENS3_12basic_stringIcNS3_11char_traitsIcEENS7_IcEEEERKT_
   fun:_ZN2ml5maths7CSignal3fftERNSt3__16vectorINS2_7complexIdEENS2_9allocatorIS5_EEEE
   fun:_ZN2ml5maths7CSignal16autocorrelationsERKNSt3__16vectorINS0_16CBasicStatistics21SSampleCentralMomentsINS_4core13CFloatStorageELj1EEENS2_9allocatorIS8_EEEERNS3_IdNS9_IdEEEE
   fun:_ZN2ml5maths12_GLOBAL__N_132mostSignificantPeriodicComponentENSt3__16vectorINS0_16CBasicStatistics21SSampleCentralMomentsINS_4core13CFloatStorageELj1EEENS2_9allocatorIS8_EEEE
}
{
   <insert_a_suppression_name_here>
   Memcheck:Value8
   fun:__dtoa
   fun:__vfprintf
   fun:__v2printf
   fun:_vsnprintf
   fun:vsnprintf_l
   fun:snprintf_l
   fun:_ZNKSt3__17num_putIcNS_19ostreambuf_iteratorIcNS_11char_traitsIcEEEEE6do_putES4_RNS_8ios_baseEcd
   fun:_ZNSt3__113basic_ostreamIcNS_11char_traitsIcEEElsEd
   fun:_ZNSt3__1lsIdcNS_11char_traitsIcEEEERNS_13basic_ostreamIT0_T1_EES7_RKNS_7complexIT_EE
   fun:_ZN2ml4core14printer_detail12CLeafPrinterIN5boost17integral_constantIbLb0EEEE6print_INSt3__17complexIdEEEENS8_12basic_stringIcNS8_11char_traitsIcEENS8_9allocatorIcEEEERKT_S5_
   fun:_ZN2ml4core14printer_detail12CLeafPrinterIN5boost17integral_constantIbLb0EEEE5printINSt3__17complexIdEEEENS8_12basic_stringIcNS8_11char_traitsIcEENS8_9allocatorIcEEEERKT_
   fun:_ZN2ml4core14printer_detail12CNodePrinterIN5boost17integral_constantIbLb0EEENS0_17CContainerPrinterEE5printINSt3__17complexIdEEEENS9_12basic_stringIcNS9_11char_traitsIcEENS9_9allocatorIcEEEERKT_
}
{
   <insert_a_suppression_name_here>
   Memcheck:Cond
   fun:_ZNSt3__1ltIdmEEbRKNS_4pairIT_T0_EES6_
   fun:_ZNSt3__1gtIdmEEbRKNS_4pairIT_T0_EES6_
   fun:_ZNKSt3__17greaterINS_4pairIdmEEEclERKS2_S5_
   fun:_ZNSt3__111__sift_downIRNS_7greaterINS_4pairIdmEEEENS_11__wrap_iterIPS3_EEEEvT0_S9_T_NS_15iterator_traitsIS9_E15difference_typeES9_
   fun:_ZNSt3__111__make_heapIRNS_7greaterINS_4pairIdmEEEENS_11__wrap_iterIPS3_EEEEvT0_S9_T_
   fun:_ZNSt3__1L9make_heapINS_11__wrap_iterIPNS_4pairIdmEEEENS_7greaterIS3_EEEEvT_S8_T0_
   fun:_ZN2ml5maths16CBasicStatistics20COrderStatisticsImplINSt3__14pairIdmEENS3_6vectorIS5_NS3_9allocatorIS5_EEEENS3_7greaterIS5_EEE3addERKS5_
   fun:_ZN2ml5maths12_GLOBAL__N_132mostSignificantPeriodicComponentENSt3__16vectorINS0_16CBasicStatistics21SSampleCentralMomentsINS_4core13CFloatStorageELj1EEENS2_9allocatorIS8_EEEE
   fun:_ZN2ml5maths14testForPeriodsERKNS0_33CPeriodicityHypothesisTestsConfigEllRKNSt3__16vectorINS0_16CBasicStatistics21SSampleCentralMomentsINS_4core13CFloatStorageELj1EEENS4_9allocatorISA_EEEE
   fun:_ZN2ml5maths30CTimeSeriesDecompositionDetail16CPeriodicityTest4testERKNS1_9SAddValueE
   fun:_ZN2ml5maths30CTimeSeriesDecompositionDetail16CPeriodicityTest6handleERKNS1_9SAddValueE
   fun:_ZN2ml5maths24CTimeSeriesDecomposition8addPointEldRKNSt3__15arrayIdLm4EEERKNS2_8functionIFvNS2_6vectorINS0_16CBasicStatistics21SSampleCentralMomentsINS_4core13CFloatStorageELj1EEENS2_9allocatorISD_EEEEEEE
}
{
   <insert_a_suppression_name_here>
   Memcheck:Cond
   fun:_ZNSt3__115basic_streambufIcNS_11char_traitsIcEEE6xsputnEPKcl
   fun:_ZNSt3__115basic_streambufIcNS_11char_traitsIcEEE5sputnEPKcl
   fun:_ZNSt3__116__pad_and_outputIcNS_11char_traitsIcEEEENS_19ostreambuf_iteratorIT_T0_EES6_PKS4_S8_S8_RNS_8ios_baseES4_
   fun:_ZNSt3__124__put_character_sequenceIcNS_11char_traitsIcEEEERNS_13basic_ostreamIT_T0_EES7_PKS4_m
   fun:_ZNSt3__1lsINS_11char_traitsIcEEEERNS_13basic_ostreamIcT_EES6_c
   fun:_ZNSt3__1lsIdcNS_11char_traitsIcEEEERNS_13basic_ostreamIT0_T1_EES7_RKNS_7complexIT_EE
   fun:_ZN2ml4core14printer_detail12CLeafPrinterIN5boost17integral_constantIbLb0EEEE6print_INSt3__17complexIdEEEENS8_12basic_stringIcNS8_11char_traitsIcEENS8_9allocatorIcEEEERKT_S5_
   fun:_ZN2ml4core14printer_detail12CLeafPrinterIN5boost17integral_constantIbLb0EEEE5printINSt3__17complexIdEEEENS8_12basic_stringIcNS8_11char_traitsIcEENS8_9allocatorIcEEEERKT_
   fun:_ZN2ml4core14printer_detail12CNodePrinterIN5boost17integral_constantIbLb0EEENS0_17CContainerPrinterEE5printINSt3__17complexIdEEEENS9_12basic_stringIcNS9_11char_traitsIcEENS9_9allocatorIcEEEERKT_
   fun:_ZN2ml4core17CContainerPrinter12printElementINSt3__17complexIdEEEENS3_12basic_stringIcNS3_11char_traitsIcEENS3_9allocatorIcEEEERKT_
   fun:_ZN2ml4core17CContainerPrinter5printINSt3__111__wrap_iterIPKNS3_7complexIdEEEEEENS3_12basic_stringIcNS3_11char_traitsIcEENS3_9allocatorIcEEEET_SG_
   fun:_ZN2ml4core17CContainerPrinter5printINSt3__16vectorINS3_7complexIdEENS3_9allocatorIS6_EEEEEENS3_12basic_stringIcNS3_11char_traitsIcEENS7_IcEEEERKT_
}
{
   <insert_a_suppression_name_here>
   Memcheck:Cond
   fun:__d2b_D2A
   fun:__dtoa
   fun:__vfprintf
   fun:__v2printf
   fun:_vsnprintf
   fun:vsnprintf_l
   fun:snprintf_l
   fun:_ZNKSt3__17num_putIcNS_19ostreambuf_iteratorIcNS_11char_traitsIcEEEEE6do_putES4_RNS_8ios_baseEcd
   fun:_ZNSt3__113basic_ostreamIcNS_11char_traitsIcEEElsEd
   fun:_ZNSt3__1lsIdcNS_11char_traitsIcEEEERNS_13basic_ostreamIT0_T1_EES7_RKNS_7complexIT_EE
   fun:_ZN2ml4core14printer_detail12CLeafPrinterIN5boost17integral_constantIbLb0EEEE6print_INSt3__17complexIdEEEENS8_12basic_stringIcNS8_11char_traitsIcEENS8_9allocatorIcEEEERKT_S5_
   fun:_ZN2ml4core14printer_detail12CLeafPrinterIN5boost17integral_constantIbLb0EEEE5printINSt3__17complexIdEEEENS8_12basic_stringIcNS8_11char_traitsIcEENS8_9allocatorIcEEEERKT_
}
{
   <insert_a_suppression_name_here>
   Memcheck:Cond
   fun:_ZN5boost3log11v2_mt_posix3aux22basic_ostringstreambufIcNSt3__111char_traitsIcEENS4_9allocatorIcEEE6appendEPKcm
   fun:_ZN5boost3log11v2_mt_posix24basic_formatting_ostreamIcNSt3__111char_traitsIcEENS3_9allocatorIcEEE15formatted_writeEPKcl
   fun:_ZN5boost3log11v2_mt_posixlsIcNSt3__111char_traitsIcEENS3_9allocatorIcEEEENS1_3aux30enable_if_streamable_char_typeIT_RNS1_24basic_formatting_ostreamIcS5_S7_EEE4typeESD_RKNS3_12basic_stringISA_T0_T1_EE
   fun:_ZN5boost3log11v2_mt_posixlsINS1_20basic_record_ostreamIcEENSt3__112basic_stringIcNS5_11char_traitsIcEENS5_9allocatorIcEEEEEENS1_3aux38enable_record_ostream_generic_operatorIT_T0_Lb0ERSE_E4typeESG_RKSF_
   fun:_ZN2ml5maths7CSignal3fftERNSt3__16vectorINS2_7complexIdEENS2_9allocatorIS5_EEEE
   fun:_ZN2ml5maths7CSignal16autocorrelationsERKNSt3__16vectorINS0_16CBasicStatistics21SSampleCentralMomentsINS_4core13CFloatStorageELj1EEENS2_9allocatorIS8_EEEERNS3_IdNS9_IdEEEE
   fun:_ZN2ml5maths12_GLOBAL__N_132mostSignificantPeriodicComponentENSt3__16vectorINS0_16CBasicStatistics21SSampleCentralMomentsINS_4core13CFloatStorageELj1EEENS2_9allocatorIS8_EEEE
   fun:_ZN2ml5maths14testForPeriodsERKNS0_33CPeriodicityHypothesisTestsConfigEllRKNSt3__16vectorINS0_16CBasicStatistics21SSampleCentralMomentsINS_4core13CFloatStorageELj1EEENS4_9allocatorISA_EEEE
   fun:_ZN2ml5maths30CTimeSeriesDecompositionDetail16CPeriodicityTest4testERKNS1_9SAddValueE
   fun:_ZN2ml5maths30CTimeSeriesDecompositionDetail16CPeriodicityTest6handleERKNS1_9SAddValueE
   fun:_ZN2ml5maths24CTimeSeriesDecomposition8addPointEldRKNSt3__15arrayIdLm4EEERKNS2_8functionIFvNS2_6vectorINS0_16CBasicStatistics21SSampleCentralMomentsINS_4core13CFloatStorageELj1EEENS2_9allocatorISD_EEEEEEE
   fun:_ZN28CTimeSeriesDecompositionTest39testMixedSmoothAndSpikeyDataProblemCase11test_methodEv
}
{
   <insert_a_suppression_name_here>
   Memcheck:Cond
   fun:_ZNSt3__112basic_stringIcNS_11char_traitsIcEENS_9allocatorIcEEE6appendEmc
   fun:_ZN5boost3log11v2_mt_posix3aux11put_integerIcEEvRNS2_22basic_ostringstreambufIT_NSt3__111char_traitsIS5_EENS6_9allocatorIS5_EEEEjjS5_
   fun:_ZN5boost3log11v2_mt_posix3aux19date_time_formatterINS2_23decomposed_time_wrapperINS_10posix_time5ptimeEEEcE25format_fractional_secondsERNS8_7contextE
   fun:_ZNK5boost3log11v2_mt_posix3aux19date_time_formatterINS2_23decomposed_time_wrapperINS_10posix_time5ptimeEEEcEclERNS1_24basic_formatting_ostreamIcNSt3__111char_traitsIcEENSA_9allocatorIcEEEERKS7_
   fun:_ZNK5boost3log11v2_mt_posix11expressions3aux41date_time_formatter_generator_traits_implINS_10posix_time5ptimeEcE9formatterclERNS1_24basic_formatting_ostreamIcNSt3__111char_traitsIcEENSA_9allocatorIcEEEERKS6_
   fun:_ZN5boost3log11v2_mt_posix3aux14light_functionIFvRNS1_24basic_formatting_ostreamIcNSt3__111char_traitsIcEENS5_9allocatorIcEEEERKNS_10posix_time5ptimeEEE4implINS1_11expressions3aux41date_time_formatter_generator_traits_implISD_cE9formatterEE11invoke_implEPvSB_SF_
   fun:_ZNK5boost3log11v2_mt_posix3aux14light_functionIFvRNS1_24basic_formatting_ostreamIcNSt3__111char_traitsIcEENS5_9allocatorIcEEEERKNS_10posix_time5ptimeEEEclESB_SF_
   fun:_ZNK5boost3log11v2_mt_posix9binder1stIRKNS1_3aux14light_functionIFvRNS1_24basic_formatting_ostreamIcNSt3__111char_traitsIcEENS6_9allocatorIcEEEERKNS_10posix_time5ptimeEEEERNS1_11expressions3aux10stream_refISB_EEEclISE_EEvRKT_
   fun:_ZN5boost3log11v2_mt_posix15type_dispatcher13callback_base10trampolineINS1_9binder1stIRKNS1_3aux14light_functionIFvRNS1_24basic_formatting_ostreamIcNSt3__111char_traitsIcEENS9_9allocatorIcEEEERKNS_10posix_time5ptimeEEEERNS1_11expressions3aux10stream_refISE_EEEESH_EEvPvRKT0_
   fun:_ZNK5boost3log11v2_mt_posix15type_dispatcher8callbackINS_10posix_time5ptimeEEclERKS5_
   fun:_ZN5boost3log11v2_mt_posix10attributes20attribute_value_implINS_10posix_time5ptimeEE8dispatchERNS1_15type_dispatcherE
   fun:_ZNK5boost3log11v2_mt_posix15attribute_value8dispatchERNS1_15type_dispatcherE
}
{
   <insert_a_suppression_name_here>
   Memcheck:Cond
   fun:_ZNSt3__116__pad_and_outputIcNS_11char_traitsIcEEEENS_19ostreambuf_iteratorIT_T0_EES6_PKS4_S8_S8_RNS_8ios_baseES4_
   fun:_ZNSt3__124__put_character_sequenceIcNS_11char_traitsIcEEEERNS_13basic_ostreamIT_T0_EES7_PKS4_m
   fun:_ZNSt3__1lsINS_11char_traitsIcEEEERNS_13basic_ostreamIcT_EES6_c
   fun:_ZNSt3__1lsIdcNS_11char_traitsIcEEEERNS_13basic_ostreamIT0_T1_EES7_RKNS_7complexIT_EE
   fun:_ZN2ml4core14printer_detail12CLeafPrinterIN5boost17integral_constantIbLb0EEEE6print_INSt3__17complexIdEEEENS8_12basic_stringIcNS8_11char_traitsIcEENS8_9allocatorIcEEEERKT_S5_
   fun:_ZN2ml4core14printer_detail12CLeafPrinterIN5boost17integral_constantIbLb0EEEE5printINSt3__17complexIdEEEENS8_12basic_stringIcNS8_11char_traitsIcEENS8_9allocatorIcEEEERKT_
   fun:_ZN2ml4core14printer_detail12CNodePrinterIN5boost17integral_constantIbLb0EEENS0_17CContainerPrinterEE5printINSt3__17complexIdEEEENS9_12basic_stringIcNS9_11char_traitsIcEENS9_9allocatorIcEEEERKT_
   fun:_ZN2ml4core17CContainerPrinter12printElementINSt3__17complexIdEEEENS3_12basic_stringIcNS3_11char_traitsIcEENS3_9allocatorIcEEEERKT_
   fun:_ZN2ml4core17CContainerPrinter5printINSt3__111__wrap_iterIPKNS3_7complexIdEEEEEENS3_12basic_stringIcNS3_11char_traitsIcEENS3_9allocatorIcEEEET_SG_
   fun:_ZN2ml4core17CContainerPrinter5printINSt3__16vectorINS3_7complexIdEENS3_9allocatorIS6_EEEEEENS3_12basic_stringIcNS3_11char_traitsIcEENS7_IcEEEERKT_
   fun:_ZN2ml5maths7CSignal3fftERNSt3__16vectorINS2_7complexIdEENS2_9allocatorIS5_EEEE
   fun:_ZN2ml5maths7CSignal16autocorrelationsERKNSt3__16vectorINS0_16CBasicStatistics21SSampleCentralMomentsINS_4core13CFloatStorageELj1EEENS2_9allocatorIS8_EEEERNS3_IdNS9_IdEEEE
}
{
   <insert_a_suppression_name_here>
   Memcheck:Cond
   fun:_ZNK16ImageLoaderMachO9getRPathsERKN11ImageLoader11LinkContextERNSt3__16vectorIPKcNS4_9allocatorIS7_EEEE
   fun:_ZN11ImageLoader22recursiveLoadLibrariesERKNS_11LinkContextEbRKNS_10RPathChainEPKc
   fun:_ZN11ImageLoader22recursiveLoadLibrariesERKNS_11LinkContextEbRKNS_10RPathChainEPKc
   fun:_ZN11ImageLoader22recursiveLoadLibrariesERKNS_11LinkContextEbRKNS_10RPathChainEPKc
   fun:_ZN11ImageLoader4linkERKNS_11LinkContextEbbbRKNS_10RPathChainEPKc
   fun:_ZN4dyld4linkEP11ImageLoaderbbRKNS0_10RPathChainEj
   fun:_ZN4dyld5_mainEPK12macho_headermiPPKcS5_S5_Pm
   fun:_ZN13dyldbootstrap5startEPK12macho_headeriPPKclS2_Pm
   fun:_dyld_start
   obj:*
   obj:*
   obj:*
}
{
   <insert_a_suppression_name_here>
   Memcheck:Param
   write(count)
   fun:write$NOCANCEL
   fun:_swrite
   fun:__sfvwrite
   fun:fwrite
   fun:_ZNSt3__113basic_ostreamIcNS_11char_traitsIcEEE5writeEPKcl
   fun:_ZN5boost3log11v2_mt_posix5sinks26basic_text_ostream_backendIcE7consumeERKNS1_11record_viewERKNSt3__112basic_stringIcNS8_11char_traitsIcEENS8_9allocatorIcEEEE
   fun:_ZN5boost3log11v2_mt_posix5sinks30basic_formatting_sink_frontendIcE11feed_recordINS1_3aux10fake_mutexENS2_26basic_text_ostream_backendIcEEEEvRKNS1_11record_viewERT_RT0_
   fun:_ZN5boost3log11v2_mt_posix5sinks30basic_formatting_sink_frontendIcE15try_feed_recordINS_15recursive_mutexENS2_26basic_text_ostream_backendIcEEEEbRKNS1_11record_viewERT_RT0_
   fun:_ZN5boost3log11v2_mt_posix5sinks16synchronous_sinkINS2_26basic_text_ostream_backendIcEEE11try_consumeERKNS1_11record_viewE
   fun:_ZN5boost3log11v2_mt_posix4core16push_record_moveERNS1_6recordE
   fun:_ZN5boost3log11v2_mt_posix7sources12basic_loggerIcNS2_18severity_logger_mtIN2ml4core7CLogger6ELevelEEENS2_18multi_thread_modelINS1_3aux14light_rw_mutexEEEE20push_record_unlockedEONS1_6recordE
   fun:_ZN5boost3log11v2_mt_posix7sources22basic_composite_loggerIcNS2_18severity_logger_mtIN2ml4core7CLogger6ELevelEEENS2_18multi_thread_modelINS1_3aux14light_rw_mutexEEENS2_8featuresIJNS2_8severityIS8_EEEEEE11push_recordEONS1_6recordE
}
{
   <insert_a_suppression_name_here>
   Memcheck:Cond
   fun:_ZN4dyld30processDyldEnvironmentVariableEPKcS1_S1_
   fun:_ZN4dyldL25checkEnvironmentVariablesEPPKc
   fun:_ZN4dyld5_mainEPK12macho_headermiPPKcS5_S5_Pm
   fun:_ZN13dyldbootstrap5startEPK12macho_headeriPPKclS2_Pm
   fun:_dyld_start
   obj:*
   obj:*
   obj:*
   obj:*
}
{
   <insert_a_suppression_name_here>
   Memcheck:Param
   write(buf)
   fun:write$NOCANCEL
   fun:_swrite
   fun:__sfvwrite
   fun:fwrite
   fun:_ZNSt3__113basic_ostreamIcNS_11char_traitsIcEEE5writeEPKcl
   fun:_ZN5boost3log11v2_mt_posix5sinks26basic_text_ostream_backendIcE7consumeERKNS1_11record_viewERKNSt3__112basic_stringIcNS8_11char_traitsIcEENS8_9allocatorIcEEEE
   fun:_ZN5boost3log11v2_mt_posix5sinks30basic_formatting_sink_frontendIcE11feed_recordINS1_3aux10fake_mutexENS2_26basic_text_ostream_backendIcEEEEvRKNS1_11record_viewERT_RT0_
   fun:_ZN5boost3log11v2_mt_posix5sinks30basic_formatting_sink_frontendIcE15try_feed_recordINS_15recursive_mutexENS2_26basic_text_ostream_backendIcEEEEbRKNS1_11record_viewERT_RT0_
   fun:_ZN5boost3log11v2_mt_posix5sinks16synchronous_sinkINS2_26basic_text_ostream_backendIcEEE11try_consumeERKNS1_11record_viewE
   fun:_ZN5boost3log11v2_mt_posix4core16push_record_moveERNS1_6recordE
   fun:_ZN5boost3log11v2_mt_posix7sources12basic_loggerIcNS2_18severity_logger_mtIN2ml4core7CLogger6ELevelEEENS2_18multi_thread_modelINS1_3aux14light_rw_mutexEEEE20push_record_unlockedEONS1_6recordE
   fun:_ZN5boost3log11v2_mt_posix7sources22basic_composite_loggerIcNS2_18severity_logger_mtIN2ml4core7CLogger6ELevelEEENS2_18multi_thread_modelINS1_3aux14light_rw_mutexEEENS2_8featuresIJNS2_8severityIS8_EEEEEE11push_recordEONS1_6recordE
}
{
   <insert_a_suppression_name_here>
   Memcheck:Cond
   fun:_ZNSt3__112basic_stringIcNS_11char_traitsIcEENS_9allocatorIcEEE21__grow_by_and_replaceEmmmmmmPKc
   fun:_ZNSt3__112basic_stringIcNS_11char_traitsIcEENS_9allocatorIcEEE6appendEPKcm
   fun:_ZN5boost3log11v2_mt_posix3aux22basic_ostringstreambufIcNSt3__111char_traitsIcEENS4_9allocatorIcEEE6appendEPKcm
   fun:_ZN5boost3log11v2_mt_posix24basic_formatting_ostreamIcNSt3__111char_traitsIcEENS3_9allocatorIcEEE15formatted_writeEPKcl
   fun:_ZN5boost3log11v2_mt_posixlsIcNSt3__111char_traitsIcEENS3_9allocatorIcEEEENS1_3aux30enable_if_streamable_char_typeIT_RNS1_24basic_formatting_ostreamIcS5_S7_EEE4typeESD_RKNS3_12basic_stringISA_T0_T1_EE
   fun:_ZN5boost3log11v2_mt_posixlsINS1_20basic_record_ostreamIcEENSt3__112basic_stringIcNS5_11char_traitsIcEENS5_9allocatorIcEEEEEENS1_3aux38enable_record_ostream_generic_operatorIT_T0_Lb0ERSE_E4typeESG_RKSF_
   fun:_ZN2ml5maths7CSignal3fftERNSt3__16vectorINS2_7complexIdEENS2_9allocatorIS5_EEEE
   fun:_ZN2ml5maths7CSignal16autocorrelationsERKNSt3__16vectorINS0_16CBasicStatistics21SSampleCentralMomentsINS_4core13CFloatStorageELj1EEENS2_9allocatorIS8_EEEERNS3_IdNS9_IdEEEE
   fun:_ZN2ml5maths12_GLOBAL__N_132mostSignificantPeriodicComponentENSt3__16vectorINS0_16CBasicStatistics21SSampleCentralMomentsINS_4core13CFloatStorageELj1EEENS2_9allocatorIS8_EEEE
   fun:_ZN2ml5maths14testForPeriodsERKNS0_33CPeriodicityHypothesisTestsConfigEllRKNSt3__16vectorINS0_16CBasicStatistics21SSampleCentralMomentsINS_4core13CFloatStorageELj1EEENS4_9allocatorISA_EEEE
   fun:_ZN2ml5maths30CTimeSeriesDecompositionDetail16CPeriodicityTest4testERKNS1_9SAddValueE
   fun:_ZN2ml5maths30CTimeSeriesDecompositionDetail16CPeriodicityTest6handleERKNS1_9SAddValueE
}
{
   <insert_a_suppression_name_here>
   Memcheck:Cond
   fun:_ZNSt3__115basic_streambufIcNS_11char_traitsIcEEE5sputcEc
   fun:_ZNSt3__115basic_stringbufIcNS_11char_traitsIcEENS_9allocatorIcEEE8overflowEi
   fun:_ZNSt3__115basic_streambufIcNS_11char_traitsIcEEE6xsputnEPKcl
   fun:_ZNSt3__115basic_streambufIcNS_11char_traitsIcEEE5sputnEPKcl
   fun:_ZNSt3__116__pad_and_outputIcNS_11char_traitsIcEEEENS_19ostreambuf_iteratorIT_T0_EES6_PKS4_S8_S8_RNS_8ios_baseES4_
   fun:_ZNSt3__124__put_character_sequenceIcNS_11char_traitsIcEEEERNS_13basic_ostreamIT_T0_EES7_PKS4_m
   fun:_ZNSt3__1lsIcNS_11char_traitsIcEENS_9allocatorIcEEEERNS_13basic_ostreamIT_T0_EES9_RKNS_12basic_stringIS6_S7_T1_EE
   fun:_ZN2ml4core17CContainerPrinter5printINSt3__111__wrap_iterIPKNS3_7complexIdEEEEEENS3_12basic_stringIcNS3_11char_traitsIcEENS3_9allocatorIcEEEET_SG_
   fun:_ZN2ml4core17CContainerPrinter5printINSt3__16vectorINS3_7complexIdEENS3_9allocatorIS6_EEEEEENS3_12basic_stringIcNS3_11char_traitsIcEENS7_IcEEEERKT_
   fun:_ZN2ml5maths7CSignal3fftERNSt3__16vectorINS2_7complexIdEENS2_9allocatorIS5_EEEE
   fun:_ZN2ml5maths7CSignal16autocorrelationsERKNSt3__16vectorINS0_16CBasicStatistics21SSampleCentralMomentsINS_4core13CFloatStorageELj1EEENS2_9allocatorIS8_EEEERNS3_IdNS9_IdEEEE
   fun:_ZN2ml5maths12_GLOBAL__N_132mostSignificantPeriodicComponentENSt3__16vectorINS0_16CBasicStatistics21SSampleCentralMomentsINS_4core13CFloatStorageELj1EEENS2_9allocatorIS8_EEEE
}
{
   <insert_a_suppression_name_here>
   Memcheck:Cond
   fun:_ZNSt3__19__num_putIcE23__widen_and_group_floatEPcS2_S2_S2_RS2_S3_RKNS_6localeE
   fun:_ZNKSt3__17num_putIcNS_19ostreambuf_iteratorIcNS_11char_traitsIcEEEEE6do_putES4_RNS_8ios_baseEcd
   fun:_ZNSt3__113basic_ostreamIcNS_11char_traitsIcEEElsEd
   fun:_ZNSt3__1lsIdcNS_11char_traitsIcEEEERNS_13basic_ostreamIT0_T1_EES7_RKNS_7complexIT_EE
   fun:_ZN2ml4core14printer_detail12CLeafPrinterIN5boost17integral_constantIbLb0EEEE6print_INSt3__17complexIdEEEENS8_12basic_stringIcNS8_11char_traitsIcEENS8_9allocatorIcEEEERKT_S5_
   fun:_ZN2ml4core14printer_detail12CLeafPrinterIN5boost17integral_constantIbLb0EEEE5printINSt3__17complexIdEEEENS8_12basic_stringIcNS8_11char_traitsIcEENS8_9allocatorIcEEEERKT_
   fun:_ZN2ml4core14printer_detail12CNodePrinterIN5boost17integral_constantIbLb0EEENS0_17CContainerPrinterEE5printINSt3__17complexIdEEEENS9_12basic_stringIcNS9_11char_traitsIcEENS9_9allocatorIcEEEERKT_
   fun:_ZN2ml4core17CContainerPrinter12printElementINSt3__17complexIdEEEENS3_12basic_stringIcNS3_11char_traitsIcEENS3_9allocatorIcEEEERKT_
   fun:_ZN2ml4core17CContainerPrinter5printINSt3__111__wrap_iterIPKNS3_7complexIdEEEEEENS3_12basic_stringIcNS3_11char_traitsIcEENS3_9allocatorIcEEEET_SG_
   fun:_ZN2ml4core17CContainerPrinter5printINSt3__16vectorINS3_7complexIdEENS3_9allocatorIS6_EEEEEENS3_12basic_stringIcNS3_11char_traitsIcEENS7_IcEEEERKT_
   fun:_ZN2ml5maths7CSignal3fftERNSt3__16vectorINS2_7complexIdEENS2_9allocatorIS5_EEEE
   fun:_ZN2ml5maths7CSignal16autocorrelationsERKNSt3__16vectorINS0_16CBasicStatistics21SSampleCentralMomentsINS_4core13CFloatStorageELj1EEENS2_9allocatorIS8_EEEERNS3_IdNS9_IdEEEE
}
{
   <insert_a_suppression_name_here>
   Memcheck:Cond
   fun:__sfvwrite
   fun:fwrite
   fun:_ZNSt3__113basic_ostreamIcNS_11char_traitsIcEEE5writeEPKcl
   fun:_ZN5boost3log11v2_mt_posix5sinks26basic_text_ostream_backendIcE7consumeERKNS1_11record_viewERKNSt3__112basic_stringIcNS8_11char_traitsIcEENS8_9allocatorIcEEEE
   fun:_ZN5boost3log11v2_mt_posix5sinks30basic_formatting_sink_frontendIcE11feed_recordINS1_3aux10fake_mutexENS2_26basic_text_ostream_backendIcEEEEvRKNS1_11record_viewERT_RT0_
   fun:_ZN5boost3log11v2_mt_posix5sinks30basic_formatting_sink_frontendIcE15try_feed_recordINS_15recursive_mutexENS2_26basic_text_ostream_backendIcEEEEbRKNS1_11record_viewERT_RT0_
   fun:_ZN5boost3log11v2_mt_posix5sinks16synchronous_sinkINS2_26basic_text_ostream_backendIcEEE11try_consumeERKNS1_11record_viewE
   fun:_ZN5boost3log11v2_mt_posix4core16push_record_moveERNS1_6recordE
   fun:_ZN5boost3log11v2_mt_posix7sources12basic_loggerIcNS2_18severity_logger_mtIN2ml4core7CLogger6ELevelEEENS2_18multi_thread_modelINS1_3aux14light_rw_mutexEEEE20push_record_unlockedEONS1_6recordE
   fun:_ZN5boost3log11v2_mt_posix7sources22basic_composite_loggerIcNS2_18severity_logger_mtIN2ml4core7CLogger6ELevelEEENS2_18multi_thread_modelINS1_3aux14light_rw_mutexEEENS2_8featuresIJNS2_8severityIS8_EEEEEE11push_recordEONS1_6recordE
   fun:_ZN5boost3log11v2_mt_posix3aux11record_pumpINS1_7sources18severity_logger_mtIN2ml4core7CLogger6ELevelEEEED2Ev
   fun:_ZN5boost3log11v2_mt_posix3aux11record_pumpINS1_7sources18severity_logger_mtIN2ml4core7CLogger6ELevelEEEED1Ev
}
{
   <insert_a_suppression_name_here>
   Memcheck:Value8
   fun:_platform_memmove$VARIANT$Haswell
   fun:_ZNSt3__115basic_streambufIcNS_11char_traitsIcEEE6xsputnEPKcl
   fun:_ZNSt3__115basic_streambufIcNS_11char_traitsIcEEE5sputnEPKcl
   fun:_ZNSt3__116__pad_and_outputIcNS_11char_traitsIcEEEENS_19ostreambuf_iteratorIT_T0_EES6_PKS4_S8_S8_RNS_8ios_baseES4_
   fun:_ZNSt3__124__put_character_sequenceIcNS_11char_traitsIcEEEERNS_13basic_ostreamIT_T0_EES7_PKS4_m
   fun:_ZNSt3__1lsIcNS_11char_traitsIcEENS_9allocatorIcEEEERNS_13basic_ostreamIT_T0_EES9_RKNS_12basic_stringIS6_S7_T1_EE
   fun:_ZN2ml4core17CContainerPrinter5printINSt3__111__wrap_iterIPKNS3_7complexIdEEEEEENS3_12basic_stringIcNS3_11char_traitsIcEENS3_9allocatorIcEEEET_SG_
   fun:_ZN2ml4core17CContainerPrinter5printINSt3__16vectorINS3_7complexIdEENS3_9allocatorIS6_EEEEEENS3_12basic_stringIcNS3_11char_traitsIcEENS7_IcEEEERKT_
   fun:_ZN2ml5maths7CSignal3fftERNSt3__16vectorINS2_7complexIdEENS2_9allocatorIS5_EEEE
   fun:_ZN2ml5maths7CSignal16autocorrelationsERKNSt3__16vectorINS0_16CBasicStatistics21SSampleCentralMomentsINS_4core13CFloatStorageELj1EEENS2_9allocatorIS8_EEEERNS3_IdNS9_IdEEEE
   fun:_ZN2ml5maths12_GLOBAL__N_132mostSignificantPeriodicComponentENSt3__16vectorINS0_16CBasicStatistics21SSampleCentralMomentsINS_4core13CFloatStorageELj1EEENS2_9allocatorIS8_EEEE
   fun:_ZN2ml5maths14testForPeriodsERKNS0_33CPeriodicityHypothesisTestsConfigEllRKNSt3__16vectorINS0_16CBasicStatistics21SSampleCentralMomentsINS_4core13CFloatStorageELj1EEENS4_9allocatorISA_EEEE
}
{
   <insert_a_suppression_name_here>
   Memcheck:Cond
   fun:_ZNSt3__115basic_streambufIcNS_11char_traitsIcEEE6xsputnEPKcl
   fun:_ZNSt3__116__pad_and_outputIcNS_11char_traitsIcEEEENS_19ostreambuf_iteratorIT_T0_EES6_PKS4_S8_S8_RNS_8ios_baseES4_
   fun:_ZNKSt3__17num_putIcNS_19ostreambuf_iteratorIcNS_11char_traitsIcEEEEE6do_putES4_RNS_8ios_baseEcd
   fun:_ZNSt3__113basic_ostreamIcNS_11char_traitsIcEEElsEd
   fun:_ZNSt3__1lsIdcNS_11char_traitsIcEEEERNS_13basic_ostreamIT0_T1_EES7_RKNS_7complexIT_EE
   fun:_ZN2ml4core14printer_detail12CLeafPrinterIN5boost17integral_constantIbLb0EEEE6print_INSt3__17complexIdEEEENS8_12basic_stringIcNS8_11char_traitsIcEENS8_9allocatorIcEEEERKT_S5_
   fun:_ZN2ml4core14printer_detail12CLeafPrinterIN5boost17integral_constantIbLb0EEEE5printINSt3__17complexIdEEEENS8_12basic_stringIcNS8_11char_traitsIcEENS8_9allocatorIcEEEERKT_
   fun:_ZN2ml4core14printer_detail12CNodePrinterIN5boost17integral_constantIbLb0EEENS0_17CContainerPrinterEE5printINSt3__17complexIdEEEENS9_12basic_stringIcNS9_11char_traitsIcEENS9_9allocatorIcEEEERKT_
   fun:_ZN2ml4core17CContainerPrinter12printElementINSt3__17complexIdEEEENS3_12basic_stringIcNS3_11char_traitsIcEENS3_9allocatorIcEEEERKT_
   fun:_ZN2ml4core17CContainerPrinter5printINSt3__111__wrap_iterIPKNS3_7complexIdEEEEEENS3_12basic_stringIcNS3_11char_traitsIcEENS3_9allocatorIcEEEET_SG_
   fun:_ZN2ml4core17CContainerPrinter5printINSt3__16vectorINS3_7complexIdEENS3_9allocatorIS6_EEEEEENS3_12basic_stringIcNS3_11char_traitsIcEENS7_IcEEEERKT_
   fun:_ZN2ml5maths7CSignal3fftERNSt3__16vectorINS2_7complexIdEENS2_9allocatorIS5_EEEE
}
{
   <insert_a_suppression_name_here>
   Memcheck:Cond
   fun:malloc
   fun:_Znwm
   fun:_ZNSt3__1L17__libcpp_allocateEmm
   fun:_ZNSt3__19allocatorIcE8allocateEmPKv
   fun:_ZNSt3__116allocator_traitsINS_9allocatorIcEEE8allocateERS2_m
   fun:_ZNSt3__112basic_stringIcNS_11char_traitsIcEENS_9allocatorIcEEE6__initIPcEENS_9enable_ifIXsr21__is_forward_iteratorIT_EE5valueEvE4typeES9_S9_
   fun:_ZNSt3__112basic_stringIcNS_11char_traitsIcEENS_9allocatorIcEEEC2IPcEET_S8_RKS4_
   fun:_ZNSt3__112basic_stringIcNS_11char_traitsIcEENS_9allocatorIcEEEC1IPcEET_S8_RKS4_
   fun:_ZNKSt3__115basic_stringbufIcNS_11char_traitsIcEENS_9allocatorIcEEE3strEv
   fun:_ZNKSt3__119basic_ostringstreamIcNS_11char_traitsIcEENS_9allocatorIcEEE3strEv
   fun:_ZN2ml4core17CContainerPrinter5printINSt3__111__wrap_iterIPKNS3_7complexIdEEEEEENS3_12basic_stringIcNS3_11char_traitsIcEENS3_9allocatorIcEEEET_SG_
   fun:_ZN2ml4core17CContainerPrinter5printINSt3__16vectorINS3_7complexIdEENS3_9allocatorIS6_EEEEEENS3_12basic_stringIcNS3_11char_traitsIcEENS7_IcEEEERKT_
}
{
   <insert_a_suppression_name_here>
   Memcheck:Cond
   fun:_platform_memmove$VARIANT$Haswell
   fun:_ZNSt3__115basic_streambufIcNS_11char_traitsIcEEE6xsputnEPKcl
   fun:_ZNSt3__115basic_streambufIcNS_11char_traitsIcEEE5sputnEPKcl
   fun:_ZNSt3__116__pad_and_outputIcNS_11char_traitsIcEEEENS_19ostreambuf_iteratorIT_T0_EES6_PKS4_S8_S8_RNS_8ios_baseES4_
   fun:_ZNSt3__124__put_character_sequenceIcNS_11char_traitsIcEEEERNS_13basic_ostreamIT_T0_EES7_PKS4_m
   fun:_ZNSt3__1lsINS_11char_traitsIcEEEERNS_13basic_ostreamIcT_EES6_c
   fun:_ZNSt3__1lsIdcNS_11char_traitsIcEEEERNS_13basic_ostreamIT0_T1_EES7_RKNS_7complexIT_EE
   fun:_ZN2ml4core14printer_detail12CLeafPrinterIN5boost17integral_constantIbLb0EEEE6print_INSt3__17complexIdEEEENS8_12basic_stringIcNS8_11char_traitsIcEENS8_9allocatorIcEEEERKT_S5_
   fun:_ZN2ml4core14printer_detail12CLeafPrinterIN5boost17integral_constantIbLb0EEEE5printINSt3__17complexIdEEEENS8_12basic_stringIcNS8_11char_traitsIcEENS8_9allocatorIcEEEERKT_
   fun:_ZN2ml4core14printer_detail12CNodePrinterIN5boost17integral_constantIbLb0EEENS0_17CContainerPrinterEE5printINSt3__17complexIdEEEENS9_12basic_stringIcNS9_11char_traitsIcEENS9_9allocatorIcEEEERKT_
   fun:_ZN2ml4core17CContainerPrinter12printElementINSt3__17complexIdEEEENS3_12basic_stringIcNS3_11char_traitsIcEENS3_9allocatorIcEEEERKT_
   fun:_ZN2ml4core17CContainerPrinter5printINSt3__111__wrap_iterIPKNS3_7complexIdEEEEEENS3_12basic_stringIcNS3_11char_traitsIcEENS3_9allocatorIcEEEET_SG_
}
{
   <insert_a_suppression_name_here>
   Memcheck:Value8
   fun:_ZNSt3__112basic_stringIcNS_11char_traitsIcEENS_9allocatorIcEEE21__grow_by_and_replaceEmmmmmmPKc
   fun:_ZNSt3__112basic_stringIcNS_11char_traitsIcEENS_9allocatorIcEEE6appendEPKcm
   fun:_ZN5boost3log11v2_mt_posix3aux22basic_ostringstreambufIcNSt3__111char_traitsIcEENS4_9allocatorIcEEE6appendEPKcm
   fun:_ZN5boost3log11v2_mt_posix24basic_formatting_ostreamIcNSt3__111char_traitsIcEENS3_9allocatorIcEEE15formatted_writeEPKcl
   fun:_ZN5boost3log11v2_mt_posixlsIcNSt3__111char_traitsIcEENS3_9allocatorIcEEEENS1_3aux30enable_if_streamable_char_typeIT_RNS1_24basic_formatting_ostreamIcS5_S7_EEE4typeESD_RKNS3_12basic_stringISA_T0_T1_EE
   fun:_ZN5boost3log11v2_mt_posixlsINS1_20basic_record_ostreamIcEENSt3__112basic_stringIcNS5_11char_traitsIcEENS5_9allocatorIcEEEEEENS1_3aux38enable_record_ostream_generic_operatorIT_T0_Lb0ERSE_E4typeESG_RKSF_
   fun:_ZN2ml5maths7CSignal3fftERNSt3__16vectorINS2_7complexIdEENS2_9allocatorIS5_EEEE
   fun:_ZN2ml5maths7CSignal16autocorrelationsERKNSt3__16vectorINS0_16CBasicStatistics21SSampleCentralMomentsINS_4core13CFloatStorageELj1EEENS2_9allocatorIS8_EEEERNS3_IdNS9_IdEEEE
   fun:_ZN2ml5maths12_GLOBAL__N_132mostSignificantPeriodicComponentENSt3__16vectorINS0_16CBasicStatistics21SSampleCentralMomentsINS_4core13CFloatStorageELj1EEENS2_9allocatorIS8_EEEE
   fun:_ZN2ml5maths14testForPeriodsERKNS0_33CPeriodicityHypothesisTestsConfigEllRKNSt3__16vectorINS0_16CBasicStatistics21SSampleCentralMomentsINS_4core13CFloatStorageELj1EEENS4_9allocatorISA_EEEE
   fun:_ZN2ml5maths30CTimeSeriesDecompositionDetail16CPeriodicityTest4testERKNS1_9SAddValueE
   fun:_ZN2ml5maths30CTimeSeriesDecompositionDetail16CPeriodicityTest6handleERKNS1_9SAddValueE
}
{
   <insert_a_suppression_name_here>
   Memcheck:Cond
   fun:_ZNSt3__116__pad_and_outputIcNS_11char_traitsIcEEEENS_19ostreambuf_iteratorIT_T0_EES6_PKS4_S8_S8_RNS_8ios_baseES4_
   fun:_ZNSt3__124__put_character_sequenceIcNS_11char_traitsIcEEEERNS_13basic_ostreamIT_T0_EES7_PKS4_m
   fun:_ZNSt3__1lsIcNS_11char_traitsIcEENS_9allocatorIcEEEERNS_13basic_ostreamIT_T0_EES9_RKNS_12basic_stringIS6_S7_T1_EE
   fun:_ZNSt3__1lsIdcNS_11char_traitsIcEEEERNS_13basic_ostreamIT0_T1_EES7_RKNS_7complexIT_EE
   fun:_ZN2ml4core14printer_detail12CLeafPrinterIN5boost17integral_constantIbLb0EEEE6print_INSt3__17complexIdEEEENS8_12basic_stringIcNS8_11char_traitsIcEENS8_9allocatorIcEEEERKT_S5_
   fun:_ZN2ml4core14printer_detail12CLeafPrinterIN5boost17integral_constantIbLb0EEEE5printINSt3__17complexIdEEEENS8_12basic_stringIcNS8_11char_traitsIcEENS8_9allocatorIcEEEERKT_
   fun:_ZN2ml4core14printer_detail12CNodePrinterIN5boost17integral_constantIbLb0EEENS0_17CContainerPrinterEE5printINSt3__17complexIdEEEENS9_12basic_stringIcNS9_11char_traitsIcEENS9_9allocatorIcEEEERKT_
   fun:_ZN2ml4core17CContainerPrinter12printElementINSt3__17complexIdEEEENS3_12basic_stringIcNS3_11char_traitsIcEENS3_9allocatorIcEEEERKT_
   fun:_ZN2ml4core17CContainerPrinter5printINSt3__111__wrap_iterIPKNS3_7complexIdEEEEEENS3_12basic_stringIcNS3_11char_traitsIcEENS3_9allocatorIcEEEET_SG_
   fun:_ZN2ml4core17CContainerPrinter5printINSt3__16vectorINS3_7complexIdEENS3_9allocatorIS6_EEEEEENS3_12basic_stringIcNS3_11char_traitsIcEENS7_IcEEEERKT_
   fun:_ZN2ml5maths7CSignal3fftERNSt3__16vectorINS2_7complexIdEENS2_9allocatorIS5_EEEE
   fun:_ZN2ml5maths7CSignal16autocorrelationsERKNSt3__16vectorINS0_16CBasicStatistics21SSampleCentralMomentsINS_4core13CFloatStorageELj1EEENS2_9allocatorIS8_EEEERNS3_IdNS9_IdEEEE
}
{
   <insert_a_suppression_name_here>
   Memcheck:Cond
   fun:_ZN4dyld5_mainEPK12macho_headermiPPKcS5_S5_Pm
   fun:_ZN13dyldbootstrap5startEPK12macho_headeriPPKclS2_Pm
   fun:_dyld_start
   obj:*
   obj:*
   obj:*
   obj:*
}
{
   <insert_a_suppression_name_here>
   Memcheck:Cond
   fun:_ZNK16ImageLoaderMachO9getRPathsERKN11ImageLoader11LinkContextERNSt3__16vectorIPKcNS4_9allocatorIS7_EEEE
   fun:_ZN11ImageLoader22recursiveLoadLibrariesERKNS_11LinkContextEbRKNS_10RPathChainEPKc
   fun:_ZN11ImageLoader4linkERKNS_11LinkContextEbbbRKNS_10RPathChainEPKc
   fun:_ZN4dyld4linkEP11ImageLoaderbbRKNS0_10RPathChainEj
   fun:_ZN4dyld5_mainEPK12macho_headermiPPKcS5_S5_Pm
   fun:_ZN13dyldbootstrap5startEPK12macho_headeriPPKclS2_Pm
   fun:_dyld_start
   obj:*
   obj:*
   obj:*
   obj:*
}
{
   <insert_a_suppression_name_here>
   Memcheck:Cond
   fun:_ZNKSt3__15ctypeIcE8do_widenEPKcS3_Pc
   fun:_ZNSt3__19__num_putIcE23__widen_and_group_floatEPcS2_S2_S2_RS2_S3_RKNS_6localeE
   fun:_ZNKSt3__17num_putIcNS_19ostreambuf_iteratorIcNS_11char_traitsIcEEEEE6do_putES4_RNS_8ios_baseEcd
   fun:_ZNSt3__113basic_ostreamIcNS_11char_traitsIcEEElsEd
   fun:_ZNSt3__1lsIdcNS_11char_traitsIcEEEERNS_13basic_ostreamIT0_T1_EES7_RKNS_7complexIT_EE
   fun:_ZN2ml4core14printer_detail12CLeafPrinterIN5boost17integral_constantIbLb0EEEE6print_INSt3__17complexIdEEEENS8_12basic_stringIcNS8_11char_traitsIcEENS8_9allocatorIcEEEERKT_S5_
   fun:_ZN2ml4core14printer_detail12CLeafPrinterIN5boost17integral_constantIbLb0EEEE5printINSt3__17complexIdEEEENS8_12basic_stringIcNS8_11char_traitsIcEENS8_9allocatorIcEEEERKT_
   fun:_ZN2ml4core14printer_detail12CNodePrinterIN5boost17integral_constantIbLb0EEENS0_17CContainerPrinterEE5printINSt3__17complexIdEEEENS9_12basic_stringIcNS9_11char_traitsIcEENS9_9allocatorIcEEEERKT_
   fun:_ZN2ml4core17CContainerPrinter12printElementINSt3__17complexIdEEEENS3_12basic_stringIcNS3_11char_traitsIcEENS3_9allocatorIcEEEERKT_
   fun:_ZN2ml4core17CContainerPrinter5printINSt3__111__wrap_iterIPKNS3_7complexIdEEEEEENS3_12basic_stringIcNS3_11char_traitsIcEENS3_9allocatorIcEEEET_SG_
   fun:_ZN2ml4core17CContainerPrinter5printINSt3__16vectorINS3_7complexIdEENS3_9allocatorIS6_EEEEEENS3_12basic_stringIcNS3_11char_traitsIcEENS7_IcEEEERKT_
   fun:_ZN2ml5maths7CSignal3fftERNSt3__16vectorINS2_7complexIdEENS2_9allocatorIS5_EEEE
}
{
   <insert_a_suppression_name_here>
   Memcheck:Cond
   fun:_platform_memmove$VARIANT$Haswell
   fun:_ZNSt3__115basic_streambufIcNS_11char_traitsIcEEE6xsputnEPKcl
   fun:_ZNSt3__115basic_streambufIcNS_11char_traitsIcEEE5sputnEPKcl
   fun:_ZNSt3__116__pad_and_outputIcNS_11char_traitsIcEEEENS_19ostreambuf_iteratorIT_T0_EES6_PKS4_S8_S8_RNS_8ios_baseES4_
   fun:_ZNSt3__124__put_character_sequenceIcNS_11char_traitsIcEEEERNS_13basic_ostreamIT_T0_EES7_PKS4_m
   fun:_ZNSt3__1lsIcNS_11char_traitsIcEENS_9allocatorIcEEEERNS_13basic_ostreamIT_T0_EES9_RKNS_12basic_stringIS6_S7_T1_EE
   fun:_ZN2ml4core17CContainerPrinter5printINSt3__111__wrap_iterIPKNS3_7complexIdEEEEEENS3_12basic_stringIcNS3_11char_traitsIcEENS3_9allocatorIcEEEET_SG_
   fun:_ZN2ml4core17CContainerPrinter5printINSt3__16vectorINS3_7complexIdEENS3_9allocatorIS6_EEEEEENS3_12basic_stringIcNS3_11char_traitsIcEENS7_IcEEEERKT_
   fun:_ZN2ml5maths7CSignal3fftERNSt3__16vectorINS2_7complexIdEENS2_9allocatorIS5_EEEE
   fun:_ZN2ml5maths7CSignal16autocorrelationsERKNSt3__16vectorINS0_16CBasicStatistics21SSampleCentralMomentsINS_4core13CFloatStorageELj1EEENS2_9allocatorIS8_EEEERNS3_IdNS9_IdEEEE
   fun:_ZN2ml5maths12_GLOBAL__N_132mostSignificantPeriodicComponentENSt3__16vectorINS0_16CBasicStatistics21SSampleCentralMomentsINS_4core13CFloatStorageELj1EEENS2_9allocatorIS8_EEEE
   fun:_ZN2ml5maths14testForPeriodsERKNS0_33CPeriodicityHypothesisTestsConfigEllRKNSt3__16vectorINS0_16CBasicStatistics21SSampleCentralMomentsINS_4core13CFloatStorageELj1EEENS4_9allocatorISA_EEEE
}
{
   <insert_a_suppression_name_here>
   Memcheck:Cond
   fun:_ZNSt3__112basic_stringIcNS_11char_traitsIcEENS_9allocatorIcEEE6__initIPcEENS_9enable_ifIXsr21__is_forward_iteratorIT_EE5valueEvE4typeES9_S9_
   fun:_ZNSt3__112basic_stringIcNS_11char_traitsIcEENS_9allocatorIcEEEC2IPcEET_S8_RKS4_
   fun:_ZNSt3__112basic_stringIcNS_11char_traitsIcEENS_9allocatorIcEEEC1IPcEET_S8_RKS4_
   fun:_ZNKSt3__115basic_stringbufIcNS_11char_traitsIcEENS_9allocatorIcEEE3strEv
   fun:_ZNKSt3__119basic_ostringstreamIcNS_11char_traitsIcEENS_9allocatorIcEEE3strEv
   fun:_ZNSt3__1lsIdcNS_11char_traitsIcEEEERNS_13basic_ostreamIT0_T1_EES7_RKNS_7complexIT_EE
   fun:_ZN2ml4core14printer_detail12CLeafPrinterIN5boost17integral_constantIbLb0EEEE6print_INSt3__17complexIdEEEENS8_12basic_stringIcNS8_11char_traitsIcEENS8_9allocatorIcEEEERKT_S5_
   fun:_ZN2ml4core14printer_detail12CLeafPrinterIN5boost17integral_constantIbLb0EEEE5printINSt3__17complexIdEEEENS8_12basic_stringIcNS8_11char_traitsIcEENS8_9allocatorIcEEEERKT_
   fun:_ZN2ml4core14printer_detail12CNodePrinterIN5boost17integral_constantIbLb0EEENS0_17CContainerPrinterEE5printINSt3__17complexIdEEEENS9_12basic_stringIcNS9_11char_traitsIcEENS9_9allocatorIcEEEERKT_
   fun:_ZN2ml4core17CContainerPrinter12printElementINSt3__17complexIdEEEENS3_12basic_stringIcNS3_11char_traitsIcEENS3_9allocatorIcEEEERKT_
   fun:_ZN2ml4core17CContainerPrinter5printINSt3__111__wrap_iterIPKNS3_7complexIdEEEEEENS3_12basic_stringIcNS3_11char_traitsIcEENS3_9allocatorIcEEEET_SG_
   fun:_ZN2ml4core17CContainerPrinter5printINSt3__16vectorINS3_7complexIdEENS3_9allocatorIS6_EEEEEENS3_12basic_stringIcNS3_11char_traitsIcEENS7_IcEEEERKT_
}
{
   <insert_a_suppression_name_here>
   Memcheck:Value8
   fun:_platform_memmove$VARIANT$Haswell
   fun:_ZNSt3__115basic_streambufIcNS_11char_traitsIcEEE6xsputnEPKcl
   fun:_ZNSt3__115basic_streambufIcNS_11char_traitsIcEEE5sputnEPKcl
   fun:_ZNSt3__116__pad_and_outputIcNS_11char_traitsIcEEEENS_19ostreambuf_iteratorIT_T0_EES6_PKS4_S8_S8_RNS_8ios_baseES4_
   fun:_ZNSt3__124__put_character_sequenceIcNS_11char_traitsIcEEEERNS_13basic_ostreamIT_T0_EES7_PKS4_m
   fun:_ZNSt3__1lsINS_11char_traitsIcEEEERNS_13basic_ostreamIcT_EES6_c
   fun:_ZNSt3__1lsIdcNS_11char_traitsIcEEEERNS_13basic_ostreamIT0_T1_EES7_RKNS_7complexIT_EE
   fun:_ZN2ml4core14printer_detail12CLeafPrinterIN5boost17integral_constantIbLb0EEEE6print_INSt3__17complexIdEEEENS8_12basic_stringIcNS8_11char_traitsIcEENS8_9allocatorIcEEEERKT_S5_
   fun:_ZN2ml4core14printer_detail12CLeafPrinterIN5boost17integral_constantIbLb0EEEE5printINSt3__17complexIdEEEENS8_12basic_stringIcNS8_11char_traitsIcEENS8_9allocatorIcEEEERKT_
   fun:_ZN2ml4core14printer_detail12CNodePrinterIN5boost17integral_constantIbLb0EEENS0_17CContainerPrinterEE5printINSt3__17complexIdEEEENS9_12basic_stringIcNS9_11char_traitsIcEENS9_9allocatorIcEEEERKT_
   fun:_ZN2ml4core17CContainerPrinter12printElementINSt3__17complexIdEEEENS3_12basic_stringIcNS3_11char_traitsIcEENS3_9allocatorIcEEEERKT_
   fun:_ZN2ml4core17CContainerPrinter5printINSt3__111__wrap_iterIPKNS3_7complexIdEEEEEENS3_12basic_stringIcNS3_11char_traitsIcEENS3_9allocatorIcEEEET_SG_
}
{
   <insert_a_suppression_name_here>
   Memcheck:Cond
   fun:_ZNSt3__19allocatorIcE8allocateEmPKv
   fun:_ZNSt3__116allocator_traitsINS_9allocatorIcEEE8allocateERS2_m
   fun:_ZNSt3__112basic_stringIcNS_11char_traitsIcEENS_9allocatorIcEEE6__initIPcEENS_9enable_ifIXsr21__is_forward_iteratorIT_EE5valueEvE4typeES9_S9_
   fun:_ZNSt3__112basic_stringIcNS_11char_traitsIcEENS_9allocatorIcEEEC2IPcEET_S8_RKS4_
   fun:_ZNSt3__112basic_stringIcNS_11char_traitsIcEENS_9allocatorIcEEEC1IPcEET_S8_RKS4_
   fun:_ZNKSt3__115basic_stringbufIcNS_11char_traitsIcEENS_9allocatorIcEEE3strEv
   fun:_ZNKSt3__119basic_ostringstreamIcNS_11char_traitsIcEENS_9allocatorIcEEE3strEv
   fun:_ZN2ml4core17CContainerPrinter5printINSt3__111__wrap_iterIPKNS3_7complexIdEEEEEENS3_12basic_stringIcNS3_11char_traitsIcEENS3_9allocatorIcEEEET_SG_
   fun:_ZN2ml4core17CContainerPrinter5printINSt3__16vectorINS3_7complexIdEENS3_9allocatorIS6_EEEEEENS3_12basic_stringIcNS3_11char_traitsIcEENS7_IcEEEERKT_
   fun:_ZN2ml5maths7CSignal3fftERNSt3__16vectorINS2_7complexIdEENS2_9allocatorIS5_EEEE
   fun:_ZN2ml5maths7CSignal16autocorrelationsERKNSt3__16vectorINS0_16CBasicStatistics21SSampleCentralMomentsINS_4core13CFloatStorageELj1EEENS2_9allocatorIS8_EEEERNS3_IdNS9_IdEEEE
   fun:_ZN2ml5maths12_GLOBAL__N_132mostSignificantPeriodicComponentENSt3__16vectorINS0_16CBasicStatistics21SSampleCentralMomentsINS_4core13CFloatStorageELj1EEENS2_9allocatorIS8_EEEE
}
{
   <insert_a_suppression_name_here>
   Memcheck:Cond
   fun:_platform_memmove$VARIANT$Haswell
   fun:_ZNSt3__115basic_streambufIcNS_11char_traitsIcEEE6xsputnEPKcl
   fun:_ZNSt3__116__pad_and_outputIcNS_11char_traitsIcEEEENS_19ostreambuf_iteratorIT_T0_EES6_PKS4_S8_S8_RNS_8ios_baseES4_
   fun:_ZNKSt3__17num_putIcNS_19ostreambuf_iteratorIcNS_11char_traitsIcEEEEE6do_putES4_RNS_8ios_baseEcd
   fun:_ZNSt3__113basic_ostreamIcNS_11char_traitsIcEEElsEd
   fun:_ZNSt3__1lsIdcNS_11char_traitsIcEEEERNS_13basic_ostreamIT0_T1_EES7_RKNS_7complexIT_EE
   fun:_ZN2ml4core14printer_detail12CLeafPrinterIN5boost17integral_constantIbLb0EEEE6print_INSt3__17complexIdEEEENS8_12basic_stringIcNS8_11char_traitsIcEENS8_9allocatorIcEEEERKT_S5_
   fun:_ZN2ml4core14printer_detail12CLeafPrinterIN5boost17integral_constantIbLb0EEEE5printINSt3__17complexIdEEEENS8_12basic_stringIcNS8_11char_traitsIcEENS8_9allocatorIcEEEERKT_
   fun:_ZN2ml4core14printer_detail12CNodePrinterIN5boost17integral_constantIbLb0EEENS0_17CContainerPrinterEE5printINSt3__17complexIdEEEENS9_12basic_stringIcNS9_11char_traitsIcEENS9_9allocatorIcEEEERKT_
   fun:_ZN2ml4core17CContainerPrinter12printElementINSt3__17complexIdEEEENS3_12basic_stringIcNS3_11char_traitsIcEENS3_9allocatorIcEEEERKT_
   fun:_ZN2ml4core17CContainerPrinter5printINSt3__111__wrap_iterIPKNS3_7complexIdEEEEEENS3_12basic_stringIcNS3_11char_traitsIcEENS3_9allocatorIcEEEET_SG_
   fun:_ZN2ml4core17CContainerPrinter5printINSt3__16vectorINS3_7complexIdEENS3_9allocatorIS6_EEEEEENS3_12basic_stringIcNS3_11char_traitsIcEENS7_IcEEEERKT_
}
{
   <insert_a_suppression_name_here>
   Memcheck:Cond
   fun:_ZNSt3__112basic_stringIcNS_11char_traitsIcEENS_9allocatorIcEEE6appendEPKcm
   fun:_ZN5boost3log11v2_mt_posix3aux11put_integerIcEEvRNS2_22basic_ostringstreambufIT_NSt3__111char_traitsIS5_EENS6_9allocatorIS5_EEEEjjS5_
   fun:_ZN5boost3log11v2_mt_posix3aux19date_time_formatterINS2_23decomposed_time_wrapperINS_10posix_time5ptimeEEEcE16format_full_yearERNS8_7contextE
   fun:_ZNK5boost3log11v2_mt_posix3aux19date_time_formatterINS2_23decomposed_time_wrapperINS_10posix_time5ptimeEEEcEclERNS1_24basic_formatting_ostreamIcNSt3__111char_traitsIcEENSA_9allocatorIcEEEERKS7_
   fun:_ZNK5boost3log11v2_mt_posix11expressions3aux41date_time_formatter_generator_traits_implINS_10posix_time5ptimeEcE9formatterclERNS1_24basic_formatting_ostreamIcNSt3__111char_traitsIcEENSA_9allocatorIcEEEERKS6_
   fun:_ZN5boost3log11v2_mt_posix3aux14light_functionIFvRNS1_24basic_formatting_ostreamIcNSt3__111char_traitsIcEENS5_9allocatorIcEEEERKNS_10posix_time5ptimeEEE4implINS1_11expressions3aux41date_time_formatter_generator_traits_implISD_cE9formatterEE11invoke_implEPvSB_SF_
   fun:_ZNK5boost3log11v2_mt_posix3aux14light_functionIFvRNS1_24basic_formatting_ostreamIcNSt3__111char_traitsIcEENS5_9allocatorIcEEEERKNS_10posix_time5ptimeEEEclESB_SF_
   fun:_ZNK5boost3log11v2_mt_posix9binder1stIRKNS1_3aux14light_functionIFvRNS1_24basic_formatting_ostreamIcNSt3__111char_traitsIcEENS6_9allocatorIcEEEERKNS_10posix_time5ptimeEEEERNS1_11expressions3aux10stream_refISB_EEEclISE_EEvRKT_
   fun:_ZN5boost3log11v2_mt_posix15type_dispatcher13callback_base10trampolineINS1_9binder1stIRKNS1_3aux14light_functionIFvRNS1_24basic_formatting_ostreamIcNSt3__111char_traitsIcEENS9_9allocatorIcEEEERKNS_10posix_time5ptimeEEEERNS1_11expressions3aux10stream_refISE_EEEESH_EEvPvRKT0_
   fun:_ZNK5boost3log11v2_mt_posix15type_dispatcher8callbackINS_10posix_time5ptimeEEclERKS5_
   fun:_ZN5boost3log11v2_mt_posix10attributes20attribute_value_implINS_10posix_time5ptimeEE8dispatchERNS1_15type_dispatcherE
   fun:_ZNK5boost3log11v2_mt_posix15attribute_value8dispatchERNS1_15type_dispatcherE
}
{
   <insert_a_suppression_name_here>
   Memcheck:Cond
   fun:__lo0bits_D2A
   fun:__d2b_D2A
   fun:__dtoa
   fun:__vfprintf
   fun:__v2printf
   fun:_vsnprintf
   fun:vsnprintf_l
   fun:snprintf_l
   fun:_ZNKSt3__17num_putIcNS_19ostreambuf_iteratorIcNS_11char_traitsIcEEEEE6do_putES4_RNS_8ios_baseEcd
   fun:_ZNSt3__113basic_ostreamIcNS_11char_traitsIcEEElsEd
   fun:_ZNSt3__1lsIdcNS_11char_traitsIcEEEERNS_13basic_ostreamIT0_T1_EES7_RKNS_7complexIT_EE
   fun:_ZN2ml4core14printer_detail12CLeafPrinterIN5boost17integral_constantIbLb0EEEE6print_INSt3__17complexIdEEEENS8_12basic_stringIcNS8_11char_traitsIcEENS8_9allocatorIcEEEERKT_S5_
}
{
   <insert_a_suppression_name_here>
   Memcheck:Cond
   fun:_ZNSt3__115basic_streambufIcNS_11char_traitsIcEEE6xsputnEPKcl
   fun:_ZNSt3__115basic_streambufIcNS_11char_traitsIcEEE5sputnEPKcl
   fun:_ZNSt3__116__pad_and_outputIcNS_11char_traitsIcEEEENS_19ostreambuf_iteratorIT_T0_EES6_PKS4_S8_S8_RNS_8ios_baseES4_
   fun:_ZNSt3__124__put_character_sequenceIcNS_11char_traitsIcEEEERNS_13basic_ostreamIT_T0_EES7_PKS4_m
   fun:_ZNSt3__1lsIcNS_11char_traitsIcEENS_9allocatorIcEEEERNS_13basic_ostreamIT_T0_EES9_RKNS_12basic_stringIS6_S7_T1_EE
   fun:_ZNSt3__1lsIdcNS_11char_traitsIcEEEERNS_13basic_ostreamIT0_T1_EES7_RKNS_7complexIT_EE
   fun:_ZN2ml4core14printer_detail12CLeafPrinterIN5boost17integral_constantIbLb0EEEE6print_INSt3__17complexIdEEEENS8_12basic_stringIcNS8_11char_traitsIcEENS8_9allocatorIcEEEERKT_S5_
   fun:_ZN2ml4core14printer_detail12CLeafPrinterIN5boost17integral_constantIbLb0EEEE5printINSt3__17complexIdEEEENS8_12basic_stringIcNS8_11char_traitsIcEENS8_9allocatorIcEEEERKT_
   fun:_ZN2ml4core14printer_detail12CNodePrinterIN5boost17integral_constantIbLb0EEENS0_17CContainerPrinterEE5printINSt3__17complexIdEEEENS9_12basic_stringIcNS9_11char_traitsIcEENS9_9allocatorIcEEEERKT_
   fun:_ZN2ml4core17CContainerPrinter12printElementINSt3__17complexIdEEEENS3_12basic_stringIcNS3_11char_traitsIcEENS3_9allocatorIcEEEERKT_
   fun:_ZN2ml4core17CContainerPrinter5printINSt3__111__wrap_iterIPKNS3_7complexIdEEEEEENS3_12basic_stringIcNS3_11char_traitsIcEENS3_9allocatorIcEEEET_SG_
   fun:_ZN2ml4core17CContainerPrinter5printINSt3__16vectorINS3_7complexIdEENS3_9allocatorIS6_EEEEEENS3_12basic_stringIcNS3_11char_traitsIcEENS7_IcEEEERKT_
}
{
   <insert_a_suppression_name_here>
   Memcheck:Value8
   fun:_ZNSt3__19__num_putIcE23__widen_and_group_floatEPcS2_S2_S2_RS2_S3_RKNS_6localeE
   fun:_ZNKSt3__17num_putIcNS_19ostreambuf_iteratorIcNS_11char_traitsIcEEEEE6do_putES4_RNS_8ios_baseEcd
   fun:_ZNSt3__113basic_ostreamIcNS_11char_traitsIcEEElsEd
   fun:_ZNSt3__1lsIdcNS_11char_traitsIcEEEERNS_13basic_ostreamIT0_T1_EES7_RKNS_7complexIT_EE
   fun:_ZN2ml4core14printer_detail12CLeafPrinterIN5boost17integral_constantIbLb0EEEE6print_INSt3__17complexIdEEEENS8_12basic_stringIcNS8_11char_traitsIcEENS8_9allocatorIcEEEERKT_S5_
   fun:_ZN2ml4core14printer_detail12CLeafPrinterIN5boost17integral_constantIbLb0EEEE5printINSt3__17complexIdEEEENS8_12basic_stringIcNS8_11char_traitsIcEENS8_9allocatorIcEEEERKT_
   fun:_ZN2ml4core14printer_detail12CNodePrinterIN5boost17integral_constantIbLb0EEENS0_17CContainerPrinterEE5printINSt3__17complexIdEEEENS9_12basic_stringIcNS9_11char_traitsIcEENS9_9allocatorIcEEEERKT_
   fun:_ZN2ml4core17CContainerPrinter12printElementINSt3__17complexIdEEEENS3_12basic_stringIcNS3_11char_traitsIcEENS3_9allocatorIcEEEERKT_
   fun:_ZN2ml4core17CContainerPrinter5printINSt3__111__wrap_iterIPKNS3_7complexIdEEEEEENS3_12basic_stringIcNS3_11char_traitsIcEENS3_9allocatorIcEEEET_SG_
   fun:_ZN2ml4core17CContainerPrinter5printINSt3__16vectorINS3_7complexIdEENS3_9allocatorIS6_EEEEEENS3_12basic_stringIcNS3_11char_traitsIcEENS7_IcEEEERKT_
   fun:_ZN2ml5maths7CSignal3fftERNSt3__16vectorINS2_7complexIdEENS2_9allocatorIS5_EEEE
   fun:_ZN2ml5maths7CSignal16autocorrelationsERKNSt3__16vectorINS0_16CBasicStatistics21SSampleCentralMomentsINS_4core13CFloatStorageELj1EEENS2_9allocatorIS8_EEEERNS3_IdNS9_IdEEEE
}
{
   <insert_a_suppression_name_here>
   Memcheck:Cond
   fun:__vfprintf
   fun:__v2printf
   fun:_vsnprintf
   fun:vsnprintf_l
   fun:snprintf_l
   fun:_ZNKSt3__17num_putIcNS_19ostreambuf_iteratorIcNS_11char_traitsIcEEEEE6do_putES4_RNS_8ios_baseEcd
   fun:_ZNSt3__113basic_ostreamIcNS_11char_traitsIcEEElsEd
   fun:_ZNSt3__1lsIdcNS_11char_traitsIcEEEERNS_13basic_ostreamIT0_T1_EES7_RKNS_7complexIT_EE
   fun:_ZN2ml4core14printer_detail12CLeafPrinterIN5boost17integral_constantIbLb0EEEE6print_INSt3__17complexIdEEEENS8_12basic_stringIcNS8_11char_traitsIcEENS8_9allocatorIcEEEERKT_S5_
   fun:_ZN2ml4core14printer_detail12CLeafPrinterIN5boost17integral_constantIbLb0EEEE5printINSt3__17complexIdEEEENS8_12basic_stringIcNS8_11char_traitsIcEENS8_9allocatorIcEEEERKT_
   fun:_ZN2ml4core14printer_detail12CNodePrinterIN5boost17integral_constantIbLb0EEENS0_17CContainerPrinterEE5printINSt3__17complexIdEEEENS9_12basic_stringIcNS9_11char_traitsIcEENS9_9allocatorIcEEEERKT_
   fun:_ZN2ml4core17CContainerPrinter12printElementINSt3__17complexIdEEEENS3_12basic_stringIcNS3_11char_traitsIcEENS3_9allocatorIcEEEERKT_
}
{
   <insert_a_suppression_name_here>
   Memcheck:Cond
   fun:_platform_memmove$VARIANT$Haswell
   fun:_ZNSt3__112basic_stringIcNS_11char_traitsIcEENS_9allocatorIcEEE21__grow_by_and_replaceEmmmmmmPKc
   fun:_ZNSt3__112basic_stringIcNS_11char_traitsIcEENS_9allocatorIcEEE6appendEPKcm
   fun:_ZN5boost3log11v2_mt_posix3aux22basic_ostringstreambufIcNSt3__111char_traitsIcEENS4_9allocatorIcEEE6appendEPKcm
   fun:_ZN5boost3log11v2_mt_posix24basic_formatting_ostreamIcNSt3__111char_traitsIcEENS3_9allocatorIcEEE15formatted_writeEPKcl
   fun:_ZN5boost3log11v2_mt_posixlsIcNSt3__111char_traitsIcEENS3_9allocatorIcEEEENS1_3aux30enable_if_streamable_char_typeIT_RNS1_24basic_formatting_ostreamIcS5_S7_EEE4typeESD_RKNS3_12basic_stringISA_T0_T1_EE
   fun:_ZN5boost3log11v2_mt_posixlsINS1_20basic_record_ostreamIcEENSt3__112basic_stringIcNS5_11char_traitsIcEENS5_9allocatorIcEEEEEENS1_3aux38enable_record_ostream_generic_operatorIT_T0_Lb0ERSE_E4typeESG_RKSF_
   fun:_ZN2ml5maths7CSignal3fftERNSt3__16vectorINS2_7complexIdEENS2_9allocatorIS5_EEEE
   fun:_ZN2ml5maths7CSignal16autocorrelationsERKNSt3__16vectorINS0_16CBasicStatistics21SSampleCentralMomentsINS_4core13CFloatStorageELj1EEENS2_9allocatorIS8_EEEERNS3_IdNS9_IdEEEE
   fun:_ZN2ml5maths12_GLOBAL__N_132mostSignificantPeriodicComponentENSt3__16vectorINS0_16CBasicStatistics21SSampleCentralMomentsINS_4core13CFloatStorageELj1EEENS2_9allocatorIS8_EEEE
   fun:_ZN2ml5maths14testForPeriodsERKNS0_33CPeriodicityHypothesisTestsConfigEllRKNSt3__16vectorINS0_16CBasicStatistics21SSampleCentralMomentsINS_4core13CFloatStorageELj1EEENS4_9allocatorISA_EEEE
   fun:_ZN2ml5maths30CTimeSeriesDecompositionDetail16CPeriodicityTest4testERKNS1_9SAddValueE
}
{
   <insert_a_suppression_name_here>
   Memcheck:Value8
   fun:_ZNSt3__115basic_streambufIcNS_11char_traitsIcEEE6xsputnEPKcl
   fun:_ZNSt3__115basic_streambufIcNS_11char_traitsIcEEE5sputnEPKcl
   fun:_ZNSt3__116__pad_and_outputIcNS_11char_traitsIcEEEENS_19ostreambuf_iteratorIT_T0_EES6_PKS4_S8_S8_RNS_8ios_baseES4_
   fun:_ZNSt3__124__put_character_sequenceIcNS_11char_traitsIcEEEERNS_13basic_ostreamIT_T0_EES7_PKS4_m
   fun:_ZNSt3__1lsIcNS_11char_traitsIcEENS_9allocatorIcEEEERNS_13basic_ostreamIT_T0_EES9_RKNS_12basic_stringIS6_S7_T1_EE
   fun:_ZN2ml4core17CContainerPrinter5printINSt3__111__wrap_iterIPKNS3_7complexIdEEEEEENS3_12basic_stringIcNS3_11char_traitsIcEENS3_9allocatorIcEEEET_SG_
   fun:_ZN2ml4core17CContainerPrinter5printINSt3__16vectorINS3_7complexIdEENS3_9allocatorIS6_EEEEEENS3_12basic_stringIcNS3_11char_traitsIcEENS7_IcEEEERKT_
   fun:_ZN2ml5maths7CSignal3fftERNSt3__16vectorINS2_7complexIdEENS2_9allocatorIS5_EEEE
   fun:_ZN2ml5maths7CSignal16autocorrelationsERKNSt3__16vectorINS0_16CBasicStatistics21SSampleCentralMomentsINS_4core13CFloatStorageELj1EEENS2_9allocatorIS8_EEEERNS3_IdNS9_IdEEEE
   fun:_ZN2ml5maths12_GLOBAL__N_132mostSignificantPeriodicComponentENSt3__16vectorINS0_16CBasicStatistics21SSampleCentralMomentsINS_4core13CFloatStorageELj1EEENS2_9allocatorIS8_EEEE
   fun:_ZN2ml5maths14testForPeriodsERKNS0_33CPeriodicityHypothesisTestsConfigEllRKNSt3__16vectorINS0_16CBasicStatistics21SSampleCentralMomentsINS_4core13CFloatStorageELj1EEENS4_9allocatorISA_EEEE
   fun:_ZN2ml5maths30CTimeSeriesDecompositionDetail16CPeriodicityTest4testERKNS1_9SAddValueE
}
{
   <insert_a_suppression_name_here>
   Memcheck:Cond
   fun:_ZNSt3__112basic_stringIcNS_11char_traitsIcEENS_9allocatorIcEEE11__recommendEm
   fun:_ZNSt3__112basic_stringIcNS_11char_traitsIcEENS_9allocatorIcEEE6__initIPcEENS_9enable_ifIXsr21__is_forward_iteratorIT_EE5valueEvE4typeES9_S9_
   fun:_ZNSt3__112basic_stringIcNS_11char_traitsIcEENS_9allocatorIcEEEC2IPcEET_S8_RKS4_
   fun:_ZNSt3__112basic_stringIcNS_11char_traitsIcEENS_9allocatorIcEEEC1IPcEET_S8_RKS4_
   fun:_ZNKSt3__115basic_stringbufIcNS_11char_traitsIcEENS_9allocatorIcEEE3strEv
   fun:_ZNKSt3__119basic_ostringstreamIcNS_11char_traitsIcEENS_9allocatorIcEEE3strEv
   fun:_ZN2ml4core17CContainerPrinter5printINSt3__111__wrap_iterIPKNS3_7complexIdEEEEEENS3_12basic_stringIcNS3_11char_traitsIcEENS3_9allocatorIcEEEET_SG_
   fun:_ZN2ml4core17CContainerPrinter5printINSt3__16vectorINS3_7complexIdEENS3_9allocatorIS6_EEEEEENS3_12basic_stringIcNS3_11char_traitsIcEENS7_IcEEEERKT_
   fun:_ZN2ml5maths7CSignal3fftERNSt3__16vectorINS2_7complexIdEENS2_9allocatorIS5_EEEE
   fun:_ZN2ml5maths7CSignal16autocorrelationsERKNSt3__16vectorINS0_16CBasicStatistics21SSampleCentralMomentsINS_4core13CFloatStorageELj1EEENS2_9allocatorIS8_EEEERNS3_IdNS9_IdEEEE
   fun:_ZN2ml5maths12_GLOBAL__N_132mostSignificantPeriodicComponentENSt3__16vectorINS0_16CBasicStatistics21SSampleCentralMomentsINS_4core13CFloatStorageELj1EEENS2_9allocatorIS8_EEEE
   fun:_ZN2ml5maths14testForPeriodsERKNS0_33CPeriodicityHypothesisTestsConfigEllRKNSt3__16vectorINS0_16CBasicStatistics21SSampleCentralMomentsINS_4core13CFloatStorageELj1EEENS4_9allocatorISA_EEEE
}
{
   <insert_a_suppression_name_here>
   Memcheck:Cond
   fun:_ZNKSt3__17num_putIcNS_19ostreambuf_iteratorIcNS_11char_traitsIcEEEEE6do_putES4_RNS_8ios_baseEcd
   fun:_ZNSt3__113basic_ostreamIcNS_11char_traitsIcEEElsEd
   fun:_ZNSt3__1lsIdcNS_11char_traitsIcEEEERNS_13basic_ostreamIT0_T1_EES7_RKNS_7complexIT_EE
   fun:_ZN2ml4core14printer_detail12CLeafPrinterIN5boost17integral_constantIbLb0EEEE6print_INSt3__17complexIdEEEENS8_12basic_stringIcNS8_11char_traitsIcEENS8_9allocatorIcEEEERKT_S5_
   fun:_ZN2ml4core14printer_detail12CLeafPrinterIN5boost17integral_constantIbLb0EEEE5printINSt3__17complexIdEEEENS8_12basic_stringIcNS8_11char_traitsIcEENS8_9allocatorIcEEEERKT_
   fun:_ZN2ml4core14printer_detail12CNodePrinterIN5boost17integral_constantIbLb0EEENS0_17CContainerPrinterEE5printINSt3__17complexIdEEEENS9_12basic_stringIcNS9_11char_traitsIcEENS9_9allocatorIcEEEERKT_
   fun:_ZN2ml4core17CContainerPrinter12printElementINSt3__17complexIdEEEENS3_12basic_stringIcNS3_11char_traitsIcEENS3_9allocatorIcEEEERKT_
   fun:_ZN2ml4core17CContainerPrinter5printINSt3__111__wrap_iterIPKNS3_7complexIdEEEEEENS3_12basic_stringIcNS3_11char_traitsIcEENS3_9allocatorIcEEEET_SG_
   fun:_ZN2ml4core17CContainerPrinter5printINSt3__16vectorINS3_7complexIdEENS3_9allocatorIS6_EEEEEENS3_12basic_stringIcNS3_11char_traitsIcEENS7_IcEEEERKT_
   fun:_ZN2ml5maths7CSignal3fftERNSt3__16vectorINS2_7complexIdEENS2_9allocatorIS5_EEEE
   fun:_ZN2ml5maths7CSignal16autocorrelationsERKNSt3__16vectorINS0_16CBasicStatistics21SSampleCentralMomentsINS_4core13CFloatStorageELj1EEENS2_9allocatorIS8_EEEERNS3_IdNS9_IdEEEE
   fun:_ZN2ml5maths12_GLOBAL__N_132mostSignificantPeriodicComponentENSt3__16vectorINS0_16CBasicStatistics21SSampleCentralMomentsINS_4core13CFloatStorageELj1EEENS2_9allocatorIS8_EEEE
}
{
   <insert_a_suppression_name_here>
   Memcheck:Cond
   fun:_ZNK16ImageLoaderMachO9getRPathsERKN11ImageLoader11LinkContextERNSt3__16vectorIPKcNS4_9allocatorIS7_EEEE
   fun:_ZN11ImageLoader22recursiveLoadLibrariesERKNS_11LinkContextEbRKNS_10RPathChainEPKc
   fun:_ZN11ImageLoader22recursiveLoadLibrariesERKNS_11LinkContextEbRKNS_10RPathChainEPKc
   fun:_ZN11ImageLoader4linkERKNS_11LinkContextEbbbRKNS_10RPathChainEPKc
   fun:_ZN4dyld4linkEP11ImageLoaderbbRKNS0_10RPathChainEj
   fun:_ZN4dyld5_mainEPK12macho_headermiPPKcS5_S5_Pm
   fun:_ZN13dyldbootstrap5startEPK12macho_headeriPPKclS2_Pm
   fun:_dyld_start
   obj:*
   obj:*
   obj:*
   obj:*
}
{
   <insert_a_suppression_name_here>
   Memcheck:Cond
   fun:_ZNSt3__112basic_stringIcNS_11char_traitsIcEENS_9allocatorIcEEE6appendEPKcm
   fun:_ZN5boost3log11v2_mt_posix3aux22basic_ostringstreambufIcNSt3__111char_traitsIcEENS4_9allocatorIcEEE6appendEPKcm
   fun:_ZN5boost3log11v2_mt_posix24basic_formatting_ostreamIcNSt3__111char_traitsIcEENS3_9allocatorIcEEE15formatted_writeEPKcl
   fun:_ZN5boost3log11v2_mt_posixlsIcNSt3__111char_traitsIcEENS3_9allocatorIcEEEENS1_3aux30enable_if_streamable_char_typeIT_RNS1_24basic_formatting_ostreamIcS5_S7_EEE4typeESD_RKNS3_12basic_stringISA_T0_T1_EE
   fun:_ZN5boost3log11v2_mt_posixlsINS1_20basic_record_ostreamIcEENSt3__112basic_stringIcNS5_11char_traitsIcEENS5_9allocatorIcEEEEEENS1_3aux38enable_record_ostream_generic_operatorIT_T0_Lb0ERSE_E4typeESG_RKSF_
   fun:_ZN2ml5maths7CSignal3fftERNSt3__16vectorINS2_7complexIdEENS2_9allocatorIS5_EEEE
   fun:_ZN2ml5maths7CSignal16autocorrelationsERKNSt3__16vectorINS0_16CBasicStatistics21SSampleCentralMomentsINS_4core13CFloatStorageELj1EEENS2_9allocatorIS8_EEEERNS3_IdNS9_IdEEEE
   fun:_ZN2ml5maths12_GLOBAL__N_132mostSignificantPeriodicComponentENSt3__16vectorINS0_16CBasicStatistics21SSampleCentralMomentsINS_4core13CFloatStorageELj1EEENS2_9allocatorIS8_EEEE
   fun:_ZN2ml5maths14testForPeriodsERKNS0_33CPeriodicityHypothesisTestsConfigEllRKNSt3__16vectorINS0_16CBasicStatistics21SSampleCentralMomentsINS_4core13CFloatStorageELj1EEENS4_9allocatorISA_EEEE
   fun:_ZN2ml5maths30CTimeSeriesDecompositionDetail16CPeriodicityTest4testERKNS1_9SAddValueE
   fun:_ZN2ml5maths30CTimeSeriesDecompositionDetail16CPeriodicityTest6handleERKNS1_9SAddValueE
   fun:_ZN2ml5maths24CTimeSeriesDecomposition8addPointEldRKNSt3__15arrayIdLm4EEERKNS2_8functionIFvNS2_6vectorINS0_16CBasicStatistics21SSampleCentralMomentsINS_4core13CFloatStorageELj1EEENS2_9allocatorISD_EEEEEEE
}
{
   <insert_a_suppression_name_here>
   Memcheck:Cond
   fun:_ZNSt3__1mlIdEENS_7complexIT_EERKS3_S5_
   fun:_ZNSt3__17complexIdEmLIdEERS1_RKNS0_IT_EE
   fun:_ZN2ml5maths7CSignal8hadamardERKNSt3__16vectorINS2_7complexIdEENS2_9allocatorIS5_EEEERS8_
   fun:_ZN2ml5maths7CSignal3fftERNSt3__16vectorINS2_7complexIdEENS2_9allocatorIS5_EEEE
   fun:_ZN2ml5maths7CSignal16autocorrelationsERKNSt3__16vectorINS0_16CBasicStatistics21SSampleCentralMomentsINS_4core13CFloatStorageELj1EEENS2_9allocatorIS8_EEEERNS3_IdNS9_IdEEEE
   fun:_ZN2ml5maths12_GLOBAL__N_132mostSignificantPeriodicComponentENSt3__16vectorINS0_16CBasicStatistics21SSampleCentralMomentsINS_4core13CFloatStorageELj1EEENS2_9allocatorIS8_EEEE
   fun:_ZN2ml5maths14testForPeriodsERKNS0_33CPeriodicityHypothesisTestsConfigEllRKNSt3__16vectorINS0_16CBasicStatistics21SSampleCentralMomentsINS_4core13CFloatStorageELj1EEENS4_9allocatorISA_EEEE
   fun:_ZN2ml5maths30CTimeSeriesDecompositionDetail16CPeriodicityTest4testERKNS1_9SAddValueE
   fun:_ZN2ml5maths30CTimeSeriesDecompositionDetail16CPeriodicityTest6handleERKNS1_9SAddValueE
   fun:_ZN2ml5maths24CTimeSeriesDecomposition8addPointEldRKNSt3__15arrayIdLm4EEERKNS2_8functionIFvNS2_6vectorINS0_16CBasicStatistics21SSampleCentralMomentsINS_4core13CFloatStorageELj1EEENS2_9allocatorISD_EEEEEEE
   fun:_ZN28CTimeSeriesDecompositionTest39testMixedSmoothAndSpikeyDataProblemCase11test_methodEv
   fun:_ZN28CTimeSeriesDecompositionTestL47testMixedSmoothAndSpikeyDataProblemCase_invokerEv
}
{
   <insert_a_suppression_name_here>
   Memcheck:Cond
   fun:fwrite
   fun:_ZNSt3__113basic_ostreamIcNS_11char_traitsIcEEE5writeEPKcl
   fun:_ZN5boost3log11v2_mt_posix5sinks26basic_text_ostream_backendIcE7consumeERKNS1_11record_viewERKNSt3__112basic_stringIcNS8_11char_traitsIcEENS8_9allocatorIcEEEE
   fun:_ZN5boost3log11v2_mt_posix5sinks30basic_formatting_sink_frontendIcE11feed_recordINS1_3aux10fake_mutexENS2_26basic_text_ostream_backendIcEEEEvRKNS1_11record_viewERT_RT0_
   fun:_ZN5boost3log11v2_mt_posix5sinks30basic_formatting_sink_frontendIcE15try_feed_recordINS_15recursive_mutexENS2_26basic_text_ostream_backendIcEEEEbRKNS1_11record_viewERT_RT0_
   fun:_ZN5boost3log11v2_mt_posix5sinks16synchronous_sinkINS2_26basic_text_ostream_backendIcEEE11try_consumeERKNS1_11record_viewE
   fun:_ZN5boost3log11v2_mt_posix4core16push_record_moveERNS1_6recordE
   fun:_ZN5boost3log11v2_mt_posix7sources12basic_loggerIcNS2_18severity_logger_mtIN2ml4core7CLogger6ELevelEEENS2_18multi_thread_modelINS1_3aux14light_rw_mutexEEEE20push_record_unlockedEONS1_6recordE
   fun:_ZN5boost3log11v2_mt_posix7sources22basic_composite_loggerIcNS2_18severity_logger_mtIN2ml4core7CLogger6ELevelEEENS2_18multi_thread_modelINS1_3aux14light_rw_mutexEEENS2_8featuresIJNS2_8severityIS8_EEEEEE11push_recordEONS1_6recordE
   fun:_ZN5boost3log11v2_mt_posix3aux11record_pumpINS1_7sources18severity_logger_mtIN2ml4core7CLogger6ELevelEEEED2Ev
   fun:_ZN5boost3log11v2_mt_posix3aux11record_pumpINS1_7sources18severity_logger_mtIN2ml4core7CLogger6ELevelEEEED1Ev
   fun:_ZN2ml5maths7CSignal3fftERNSt3__16vectorINS2_7complexIdEENS2_9allocatorIS5_EEEE
}
{
   <insert_a_suppression_name_here>
   Memcheck:Leak
   match-leak-kinds: possible
   fun:calloc
   fun:map_images_nolock
   fun:__objc_personality_v0
   fun:_ZN4dyldL18notifyBatchPartialE17dyld_image_statesbPFPKcS0_jPK15dyld_image_infoEbb
   fun:_ZN4dyld21registerObjCNotifiersEPFvjPKPKcPKPK11mach_headerEPFvS1_S6_ESC_
   fun:_dyld_objc_notify_register
   fun:environ_init
   fun:_os_object_init
   fun:libdispatch_init
   fun:libSystem_initializer
   fun:_ZN16ImageLoaderMachO18doModInitFunctionsERKN11ImageLoader11LinkContextE
   fun:_ZN16ImageLoaderMachO16doInitializationERKN11ImageLoader11LinkContextE
}
{
   <insert_a_suppression_name_here>
   Memcheck:Cond
   fun:_ZNSt3__116__pad_and_outputIcNS_11char_traitsIcEEEENS_19ostreambuf_iteratorIT_T0_EES6_PKS4_S8_S8_RNS_8ios_baseES4_
   fun:_ZNKSt3__17num_putIcNS_19ostreambuf_iteratorIcNS_11char_traitsIcEEEEE6do_putES4_RNS_8ios_baseEcd
   fun:_ZNSt3__113basic_ostreamIcNS_11char_traitsIcEEElsEd
   fun:_ZNSt3__1lsIdcNS_11char_traitsIcEEEERNS_13basic_ostreamIT0_T1_EES7_RKNS_7complexIT_EE
   fun:_ZN2ml4core14printer_detail12CLeafPrinterIN5boost17integral_constantIbLb0EEEE6print_INSt3__17complexIdEEEENS8_12basic_stringIcNS8_11char_traitsIcEENS8_9allocatorIcEEEERKT_S5_
   fun:_ZN2ml4core14printer_detail12CLeafPrinterIN5boost17integral_constantIbLb0EEEE5printINSt3__17complexIdEEEENS8_12basic_stringIcNS8_11char_traitsIcEENS8_9allocatorIcEEEERKT_
   fun:_ZN2ml4core14printer_detail12CNodePrinterIN5boost17integral_constantIbLb0EEENS0_17CContainerPrinterEE5printINSt3__17complexIdEEEENS9_12basic_stringIcNS9_11char_traitsIcEENS9_9allocatorIcEEEERKT_
   fun:_ZN2ml4core17CContainerPrinter12printElementINSt3__17complexIdEEEENS3_12basic_stringIcNS3_11char_traitsIcEENS3_9allocatorIcEEEERKT_
   fun:_ZN2ml4core17CContainerPrinter5printINSt3__111__wrap_iterIPKNS3_7complexIdEEEEEENS3_12basic_stringIcNS3_11char_traitsIcEENS3_9allocatorIcEEEET_SG_
   fun:_ZN2ml4core17CContainerPrinter5printINSt3__16vectorINS3_7complexIdEENS3_9allocatorIS6_EEEEEENS3_12basic_stringIcNS3_11char_traitsIcEENS7_IcEEEERKT_
   fun:_ZN2ml5maths7CSignal3fftERNSt3__16vectorINS2_7complexIdEENS2_9allocatorIS5_EEEE
   fun:_ZN2ml5maths7CSignal16autocorrelationsERKNSt3__16vectorINS0_16CBasicStatistics21SSampleCentralMomentsINS_4core13CFloatStorageELj1EEENS2_9allocatorIS8_EEEERNS3_IdNS9_IdEEEE
}
{
   <insert_a_suppression_name_here>
   Memcheck:Cond
   fun:_platform_memmove$VARIANT$Haswell
   fun:__sfvwrite
   fun:__vfprintf
   fun:__v2printf
   fun:_vsnprintf
   fun:vsnprintf_l
   fun:snprintf_l
   fun:_ZNKSt3__17num_putIcNS_19ostreambuf_iteratorIcNS_11char_traitsIcEEEEE6do_putES4_RNS_8ios_baseEcd
   fun:_ZNSt3__113basic_ostreamIcNS_11char_traitsIcEEElsEd
   fun:_ZNSt3__1lsIdcNS_11char_traitsIcEEEERNS_13basic_ostreamIT0_T1_EES7_RKNS_7complexIT_EE
   fun:_ZN2ml4core14printer_detail12CLeafPrinterIN5boost17integral_constantIbLb0EEEE6print_INSt3__17complexIdEEEENS8_12basic_stringIcNS8_11char_traitsIcEENS8_9allocatorIcEEEERKT_S5_
   fun:_ZN2ml4core14printer_detail12CLeafPrinterIN5boost17integral_constantIbLb0EEEE5printINSt3__17complexIdEEEENS8_12basic_stringIcNS8_11char_traitsIcEENS8_9allocatorIcEEEERKT_
}
{
   <insert_a_suppression_name_here>
   Memcheck:Cond
   fun:_ZNSt3__1L3maxIPcNS_6__lessIS1_S1_EEEERKT_S6_S6_T0_
   fun:_ZNSt3__1L3maxIPcEERKT_S4_S4_
   fun:_ZNSt3__115basic_stringbufIcNS_11char_traitsIcEENS_9allocatorIcEEE8overflowEi
   fun:_ZNSt3__115basic_streambufIcNS_11char_traitsIcEEE6xsputnEPKcl
   fun:_ZNSt3__115basic_streambufIcNS_11char_traitsIcEEE5sputnEPKcl
   fun:_ZNSt3__116__pad_and_outputIcNS_11char_traitsIcEEEENS_19ostreambuf_iteratorIT_T0_EES6_PKS4_S8_S8_RNS_8ios_baseES4_
   fun:_ZNSt3__124__put_character_sequenceIcNS_11char_traitsIcEEEERNS_13basic_ostreamIT_T0_EES7_PKS4_m
   fun:_ZNSt3__1lsIcNS_11char_traitsIcEENS_9allocatorIcEEEERNS_13basic_ostreamIT_T0_EES9_RKNS_12basic_stringIS6_S7_T1_EE
   fun:_ZN2ml4core17CContainerPrinter5printINSt3__111__wrap_iterIPKNS3_7complexIdEEEEEENS3_12basic_stringIcNS3_11char_traitsIcEENS3_9allocatorIcEEEET_SG_
   fun:_ZN2ml4core17CContainerPrinter5printINSt3__16vectorINS3_7complexIdEENS3_9allocatorIS6_EEEEEENS3_12basic_stringIcNS3_11char_traitsIcEENS7_IcEEEERKT_
   fun:_ZN2ml5maths7CSignal3fftERNSt3__16vectorINS2_7complexIdEENS2_9allocatorIS5_EEEE
   fun:_ZN2ml5maths7CSignal16autocorrelationsERKNSt3__16vectorINS0_16CBasicStatistics21SSampleCentralMomentsINS_4core13CFloatStorageELj1EEENS2_9allocatorIS8_EEEERNS3_IdNS9_IdEEEE
}
{
   <insert_a_suppression_name_here>
   Memcheck:Cond
   fun:_ZN4dyldL25checkEnvironmentVariablesEPPKc
   fun:_ZN4dyld5_mainEPK12macho_headermiPPKcS5_S5_Pm
   fun:_ZN13dyldbootstrap5startEPK12macho_headeriPPKclS2_Pm
   fun:_dyld_start
   obj:*
   obj:*
   obj:*
   obj:*
}
{
   <insert_a_suppression_name_here>
   Memcheck:Cond
   fun:__dtoa
   fun:__vfprintf
   fun:__v2printf
   fun:_vsnprintf
   fun:vsnprintf_l
   fun:snprintf_l
   fun:_ZNKSt3__17num_putIcNS_19ostreambuf_iteratorIcNS_11char_traitsIcEEEEE6do_putES4_RNS_8ios_baseEcd
   fun:_ZNSt3__113basic_ostreamIcNS_11char_traitsIcEEElsEd
   fun:_ZNSt3__1lsIdcNS_11char_traitsIcEEEERNS_13basic_ostreamIT0_T1_EES7_RKNS_7complexIT_EE
   fun:_ZN2ml4core14printer_detail12CLeafPrinterIN5boost17integral_constantIbLb0EEEE6print_INSt3__17complexIdEEEENS8_12basic_stringIcNS8_11char_traitsIcEENS8_9allocatorIcEEEERKT_S5_
   fun:_ZN2ml4core14printer_detail12CLeafPrinterIN5boost17integral_constantIbLb0EEEE5printINSt3__17complexIdEEEENS8_12basic_stringIcNS8_11char_traitsIcEENS8_9allocatorIcEEEERKT_
   fun:_ZN2ml4core14printer_detail12CNodePrinterIN5boost17integral_constantIbLb0EEENS0_17CContainerPrinterEE5printINSt3__17complexIdEEEENS9_12basic_stringIcNS9_11char_traitsIcEENS9_9allocatorIcEEEERKT_
}
{
   <insert_a_suppression_name_here>
   Memcheck:Value8
   fun:_vsnprintf
   fun:vsnprintf_l
   fun:snprintf_l
   fun:_ZNKSt3__17num_putIcNS_19ostreambuf_iteratorIcNS_11char_traitsIcEEEEE6do_putES4_RNS_8ios_baseEcd
   fun:_ZNSt3__113basic_ostreamIcNS_11char_traitsIcEEElsEd
   fun:_ZNSt3__1lsIdcNS_11char_traitsIcEEEERNS_13basic_ostreamIT0_T1_EES7_RKNS_7complexIT_EE
   fun:_ZN2ml4core14printer_detail12CLeafPrinterIN5boost17integral_constantIbLb0EEEE6print_INSt3__17complexIdEEEENS8_12basic_stringIcNS8_11char_traitsIcEENS8_9allocatorIcEEEERKT_S5_
   fun:_ZN2ml4core14printer_detail12CLeafPrinterIN5boost17integral_constantIbLb0EEEE5printINSt3__17complexIdEEEENS8_12basic_stringIcNS8_11char_traitsIcEENS8_9allocatorIcEEEERKT_
   fun:_ZN2ml4core14printer_detail12CNodePrinterIN5boost17integral_constantIbLb0EEENS0_17CContainerPrinterEE5printINSt3__17complexIdEEEENS9_12basic_stringIcNS9_11char_traitsIcEENS9_9allocatorIcEEEERKT_
   fun:_ZN2ml4core17CContainerPrinter12printElementINSt3__17complexIdEEEENS3_12basic_stringIcNS3_11char_traitsIcEENS3_9allocatorIcEEEERKT_
   fun:_ZN2ml4core17CContainerPrinter5printINSt3__111__wrap_iterIPKNS3_7complexIdEEEEEENS3_12basic_stringIcNS3_11char_traitsIcEENS3_9allocatorIcEEEET_SG_
   fun:_ZN2ml4core17CContainerPrinter5printINSt3__16vectorINS3_7complexIdEENS3_9allocatorIS6_EEEEEENS3_12basic_stringIcNS3_11char_traitsIcEENS7_IcEEEERKT_
}
{
   <insert_a_suppression_name_here>
   Memcheck:Value8
   fun:_platform_memmove$VARIANT$Haswell
   fun:_ZNSt3__115basic_streambufIcNS_11char_traitsIcEEE6xsputnEPKcl
   fun:_ZNSt3__116__pad_and_outputIcNS_11char_traitsIcEEEENS_19ostreambuf_iteratorIT_T0_EES6_PKS4_S8_S8_RNS_8ios_baseES4_
   fun:_ZNKSt3__17num_putIcNS_19ostreambuf_iteratorIcNS_11char_traitsIcEEEEE6do_putES4_RNS_8ios_baseEcd
   fun:_ZNSt3__113basic_ostreamIcNS_11char_traitsIcEEElsEd
   fun:_ZNSt3__1lsIdcNS_11char_traitsIcEEEERNS_13basic_ostreamIT0_T1_EES7_RKNS_7complexIT_EE
   fun:_ZN2ml4core14printer_detail12CLeafPrinterIN5boost17integral_constantIbLb0EEEE6print_INSt3__17complexIdEEEENS8_12basic_stringIcNS8_11char_traitsIcEENS8_9allocatorIcEEEERKT_S5_
   fun:_ZN2ml4core14printer_detail12CLeafPrinterIN5boost17integral_constantIbLb0EEEE5printINSt3__17complexIdEEEENS8_12basic_stringIcNS8_11char_traitsIcEENS8_9allocatorIcEEEERKT_
   fun:_ZN2ml4core14printer_detail12CNodePrinterIN5boost17integral_constantIbLb0EEENS0_17CContainerPrinterEE5printINSt3__17complexIdEEEENS9_12basic_stringIcNS9_11char_traitsIcEENS9_9allocatorIcEEEERKT_
   fun:_ZN2ml4core17CContainerPrinter12printElementINSt3__17complexIdEEEENS3_12basic_stringIcNS3_11char_traitsIcEENS3_9allocatorIcEEEERKT_
   fun:_ZN2ml4core17CContainerPrinter5printINSt3__111__wrap_iterIPKNS3_7complexIdEEEEEENS3_12basic_stringIcNS3_11char_traitsIcEENS3_9allocatorIcEEEET_SG_
   fun:_ZN2ml4core17CContainerPrinter5printINSt3__16vectorINS3_7complexIdEENS3_9allocatorIS6_EEEEEENS3_12basic_stringIcNS3_11char_traitsIcEENS7_IcEEEERKT_
}
{
   <insert_a_suppression_name_here>
   Memcheck:Cond
   fun:_ZN5boost3log11v2_mt_posix5sinks26basic_text_ostream_backendIcE7consumeERKNS1_11record_viewERKNSt3__112basic_stringIcNS8_11char_traitsIcEENS8_9allocatorIcEEEE
   fun:_ZN5boost3log11v2_mt_posix5sinks30basic_formatting_sink_frontendIcE11feed_recordINS1_3aux10fake_mutexENS2_26basic_text_ostream_backendIcEEEEvRKNS1_11record_viewERT_RT0_
   fun:_ZN5boost3log11v2_mt_posix5sinks30basic_formatting_sink_frontendIcE15try_feed_recordINS_15recursive_mutexENS2_26basic_text_ostream_backendIcEEEEbRKNS1_11record_viewERT_RT0_
   fun:_ZN5boost3log11v2_mt_posix5sinks16synchronous_sinkINS2_26basic_text_ostream_backendIcEEE11try_consumeERKNS1_11record_viewE
   fun:_ZN5boost3log11v2_mt_posix4core16push_record_moveERNS1_6recordE
   fun:_ZN5boost3log11v2_mt_posix7sources12basic_loggerIcNS2_18severity_logger_mtIN2ml4core7CLogger6ELevelEEENS2_18multi_thread_modelINS1_3aux14light_rw_mutexEEEE20push_record_unlockedEONS1_6recordE
   fun:_ZN5boost3log11v2_mt_posix7sources22basic_composite_loggerIcNS2_18severity_logger_mtIN2ml4core7CLogger6ELevelEEENS2_18multi_thread_modelINS1_3aux14light_rw_mutexEEENS2_8featuresIJNS2_8severityIS8_EEEEEE11push_recordEONS1_6recordE
   fun:_ZN5boost3log11v2_mt_posix3aux11record_pumpINS1_7sources18severity_logger_mtIN2ml4core7CLogger6ELevelEEEED2Ev
   fun:_ZN5boost3log11v2_mt_posix3aux11record_pumpINS1_7sources18severity_logger_mtIN2ml4core7CLogger6ELevelEEEED1Ev
   fun:_ZN2ml5maths7CSignal3fftERNSt3__16vectorINS2_7complexIdEENS2_9allocatorIS5_EEEE
   fun:_ZN2ml5maths7CSignal16autocorrelationsERKNSt3__16vectorINS0_16CBasicStatistics21SSampleCentralMomentsINS_4core13CFloatStorageELj1EEENS2_9allocatorIS8_EEEERNS3_IdNS9_IdEEEE
   fun:_ZN2ml5maths12_GLOBAL__N_132mostSignificantPeriodicComponentENSt3__16vectorINS0_16CBasicStatistics21SSampleCentralMomentsINS_4core13CFloatStorageELj1EEENS2_9allocatorIS8_EEEE
}
{
   <insert_a_suppression_name_here>
   Memcheck:Cond
   fun:_ZN4dyldL10loadPhase3EPKcS1_RKNS_11LoadContextERjPNSt3__16vectorIS1_NS6_9allocatorIS1_EEEE
   fun:_ZN4dyldL10loadPhase1EPKcS1_RKNS_11LoadContextERjPNSt3__16vectorIS1_NS6_9allocatorIS1_EEEE
   fun:_ZN4dyldL10loadPhase0EPKcS1_RKNS_11LoadContextERjPNSt3__16vectorIS1_NS6_9allocatorIS1_EEEE
   fun:_ZN4dyld4loadEPKcRKNS_11LoadContextERj
   fun:_ZN4dyld5_mainEPK12macho_headermiPPKcS5_S5_Pm
   fun:_ZN13dyldbootstrap5startEPK12macho_headeriPPKclS2_Pm
   fun:_dyld_start
   obj:*
   obj:*
   obj:*
   obj:*
}
{
   <insert_a_suppression_name_here>
   Memcheck:Value8
   fun:_ZN5boost3log11v2_mt_posix5sinks26basic_text_ostream_backendIcE7consumeERKNS1_11record_viewERKNSt3__112basic_stringIcNS8_11char_traitsIcEENS8_9allocatorIcEEEE
   fun:_ZN5boost3log11v2_mt_posix5sinks30basic_formatting_sink_frontendIcE11feed_recordINS1_3aux10fake_mutexENS2_26basic_text_ostream_backendIcEEEEvRKNS1_11record_viewERT_RT0_
   fun:_ZN5boost3log11v2_mt_posix5sinks30basic_formatting_sink_frontendIcE15try_feed_recordINS_15recursive_mutexENS2_26basic_text_ostream_backendIcEEEEbRKNS1_11record_viewERT_RT0_
   fun:_ZN5boost3log11v2_mt_posix5sinks16synchronous_sinkINS2_26basic_text_ostream_backendIcEEE11try_consumeERKNS1_11record_viewE
   fun:_ZN5boost3log11v2_mt_posix4core16push_record_moveERNS1_6recordE
   fun:_ZN5boost3log11v2_mt_posix7sources12basic_loggerIcNS2_18severity_logger_mtIN2ml4core7CLogger6ELevelEEENS2_18multi_thread_modelINS1_3aux14light_rw_mutexEEEE20push_record_unlockedEONS1_6recordE
   fun:_ZN5boost3log11v2_mt_posix7sources22basic_composite_loggerIcNS2_18severity_logger_mtIN2ml4core7CLogger6ELevelEEENS2_18multi_thread_modelINS1_3aux14light_rw_mutexEEENS2_8featuresIJNS2_8severityIS8_EEEEEE11push_recordEONS1_6recordE
   fun:_ZN5boost3log11v2_mt_posix3aux11record_pumpINS1_7sources18severity_logger_mtIN2ml4core7CLogger6ELevelEEEED2Ev
   fun:_ZN5boost3log11v2_mt_posix3aux11record_pumpINS1_7sources18severity_logger_mtIN2ml4core7CLogger6ELevelEEEED1Ev
   fun:_ZN2ml5maths7CSignal3fftERNSt3__16vectorINS2_7complexIdEENS2_9allocatorIS5_EEEE
   fun:_ZN2ml5maths7CSignal16autocorrelationsERKNSt3__16vectorINS0_16CBasicStatistics21SSampleCentralMomentsINS_4core13CFloatStorageELj1EEENS2_9allocatorIS8_EEEERNS3_IdNS9_IdEEEE
   fun:_ZN2ml5maths12_GLOBAL__N_132mostSignificantPeriodicComponentENSt3__16vectorINS0_16CBasicStatistics21SSampleCentralMomentsINS_4core13CFloatStorageELj1EEENS2_9allocatorIS8_EEEE
}
